(lp0
(lp1
(lp2
(F-0.4674811363220215
F-0.7673740386962891
F-3.141592502593994
F-1.5194079875946045
F-0.15684953331947327
F0.4398689270019531
F1.6206507682800293
tp3
a(F0.023362486877314403
F-0.931726511484844
F-3.062331728423785
F-1.782261057541781
F-0.022452124758298275
F0.6013706684980958
F1.5381667728197588
tp4
a(F0.6468778330339439
F-1.2217304763960306
F1.849836859673979
F-1.4724986951747687
F1.4571050843187774
F-1.4210213041722177
F0.05088734315059276
tp5
acnumpy.core.multiarray
scalar
p6
(cnumpy
dtype
p7
(S'f8'
p8
I0
I1
tp9
Rp10
(I3
S'<'
p11
NNNI-1
I-1
I0
tp12
bS'\x00\x00\x00\x00\x00\x00\xf0?'
p13
tp14
Rp15
ag6
(g10
S'\xe4R\x1d\xaf\x8c\xbc\xe1?'
p16
tp17
Rp18
aa(lp19
(F-0.4674811363220215
F-0.7673740386962891
F-3.141592502593994
F-1.5194079875946045
F-0.15684953331947327
F0.4398689270019531
F1.6206507682800293
tp20
a(F-0.2225176001040048
F-1.2217304763960306
F-2.6291511772585796
F-1.3929294600823456
F-1.1146329600420144
F-0.20808609405772352
F2.5487987333735056
tp21
a(F-0.5218629722006386
F-0.7330534375396465
F3.141592653589793
F-1.4254160593863796
F-1.7697752589485105
F1.0920300595255594
F2.5404206583957936
tp22
ag6
(g10
S'\x00\x00\x00\x00\x00\x00\x00\x00'
p23
tp24
Rp25
ag6
(g10
S'\x00\x00\x00\x00\x00\x00\xf0?'
p26
tp27
Rp28
aaa(lp29
g19
a(lp30
(F-0.4674811363220215
F-0.7673740386962891
F-3.141592502593994
F-1.5194079875946045
F-0.15684953331947327
F0.4398689270019531
F1.6206507682800293
tp31
a(F0.03035934219632306
F-1.1927271664768602
F-3.0757832588094383
F-1.6238424828498361
F-0.0765318784282019
F0.18359963604600035
F1.618310585973334
tp32
a(F0.2723339170529285
F-0.8618919726242066
F3.141592653589793
F-1.690251274418445
F-0.9806414789573419
F0.5533938873438966
F2.2226950481363814
tp33
ag6
(g10
S'\x00\x00\x00\x00\x00\x00\x00\x00'
p34
tp35
Rp36
ag6
(g10
S'\xae\xa7g\x97/~\xd8?'
p37
tp38
Rp39
aaa(lp40
g30
a(lp41
(F-0.4674811363220215
F-0.7673740386962891
F-3.141592502593994
F-1.5194079875946045
F-0.15684953331947327
F0.4398689270019531
F1.6206507682800293
tp42
a(F0.023362486877314403
F-0.931726511484844
F-3.062331728423785
F-1.782261057541781
F-0.022452124758298275
F0.6013706684980958
F1.5381667728197588
tp43
a(F-0.2480132187782232
F-0.8689407618158521
F3.141592653589793
F-1.70473079600305
F-1.493145927164746
F0.8856854248369914
F2.384927324281615
tp44
ag6
(g10
S'\x00\x00\x00\x00\x00\x00\x00\x00'
p45
tp46
Rp47
ag6
(g10
S'\n\xdfb\x97\x00\xc8\xe7?'
p48
tp49
Rp50
aaa(lp51
g41
a(lp52
(F-0.4674811363220215
F-0.7673740386962891
F-3.141592502593994
F-1.5194079875946045
F-0.15684953331947327
F0.4398689270019531
F1.6206507682800293
tp53
a(F0.023362486877314403
F-0.931726511484844
F-3.062331728423785
F-1.782261057541781
F-0.022452124758298275
F0.6013706684980958
F1.5381667728197588
tp54
a(F0.7782795233831907
F-1.0114097520941925
F3.141592653589793
F-1.9972287494840864
F0.0023583412126293637
F0.5423547617383612
F1.5501058790399262
tp55
ag6
(g10
S'\x00\x00\x00\x00\x00\x00\x00\x00'
p56
tp57
Rp58
ag6
(g10
S'\x0fIHb\x13=\xb4?'
p59
tp60
Rp61
aaa(lp62
g52
a(lp63
(F-0.4674811363220215
F-0.7673740386962891
F-3.141592502593994
F-1.5194079875946045
F-0.15684953331947327
F0.4398689270019531
F1.6206507682800293
tp64
a(F0.023362486877314403
F-0.931726511484844
F-3.062331728423785
F-1.782261057541781
F-0.022452124758298275
F0.6013706684980958
F1.5381667728197588
tp65
a(F0.016604178155127814
F-1.0343670482093623
F1.6359412586428128
F-1.4316332893271817
F-1.5158752246488625
F2.1768551671866607
F2.907803410089788
tp66
ag6
(g10
S'\x00\x00\x00\x00\x00\x00\xf0?'
p67
tp68
Rp69
ag6
(g10
S'\x96ml\x13\x9d[\xee?'
p70
tp71
Rp72
aaa(lp73
g63
a(lp74
(F-0.4674811363220215
F-0.7673740386962891
F-3.141592502593994
F-1.5194079875946045
F-0.15684953331947327
F0.4398689270019531
F1.6206507682800293
tp75
a(F0.023362486877314403
F-0.931726511484844
F-3.062331728423785
F-1.782261057541781
F-0.022452124758298275
F0.6013706684980958
F1.5381667728197588
tp76
a(F0.016604178155127814
F-1.0343670482093623
F1.6359412586428128
F-1.4316332893271817
F-1.5158752246488625
F2.1768551671866607
F2.907803410089788
tp77
ag6
(g10
S'\x00\x00\x00\x00\x00\x00\xf0?'
p78
tp79
Rp80
ag6
(g10
S'\x96ml\x13\x9d[\xee?'
p81
tp82
Rp83
aaa(lp84
g74
a(lp85
(F-0.4674811363220215
F-0.7673740386962891
F-3.141592502593994
F-1.5194079875946045
F-0.15684953331947327
F0.4398689270019531
F1.6206507682800293
tp86
a(F-0.24292151546154234
F-1.2217304763960306
F-2.565675269461092
F-1.2407701064103562
F-0.7652422751963112
F-0.3356357969178787
F2.1695612429983147
tp87
a(F0.7782795233831907
F-1.0114097520941925
F3.141592653589793
F-1.9972287494840864
F0.0023583412126293637
F0.5423547617383612
F1.5501058790399262
tp88
ag6
(g10
S'\x00\x00\x00\x00\x00\x00\x00\x00'
p89
tp90
Rp91
ag6
(g10
S'\x0fIHb\x13=\xb4?'
p92
tp93
Rp94
aaa(lp95
g85
a(lp96
(F-0.4674811363220215
F-0.7673740386962891
F-3.141592502593994
F-1.5194079875946045
F-0.15684953331947327
F0.4398689270019531
F1.6206507682800293
tp97
a(F0.023362486877314403
F-0.931726511484844
F-3.062331728423785
F-1.782261057541781
F-0.022452124758298275
F0.6013706684980958
F1.5381667728197588
tp98
a(F0.6306867222650682
F-1.17852233111641
F3.141592653589793
F-1.1628353677126202
F0.28882328154108733
F-0.48045858628753235
F1.230813052630303
tp99
ag6
(g10
S'\x00\x00\x00\x00\x00\x00\xf0?'
p100
tp101
Rp102
ag6
(g10
S'\xc3F\xfd##Q\xca?'
p103
tp104
Rp105
aaa(lp106
g96
a(lp107
(F-0.4674811363220215
F-0.7673740386962891
F-3.141592502593994
F-1.5194079875946045
F-0.15684953331947327
F0.4398689270019531
F1.6206507682800293
tp108
a(F-0.24124370174885634
F-1.2217304763960306
F-2.5842094192273035
F-1.3209101223774826
F-0.9178687948570562
F-0.269798890233853
F2.3349052872206335
tp109
a(F0.7782795233831907
F-1.0114097520941925
F3.141592653589793
F-1.9972287494840864
F0.0023583412126293637
F0.5423547617383612
F1.5501058790399262
tp110
ag6
(g10
S'\x00\x00\x00\x00\x00\x00\x00\x00'
p111
tp112
Rp113
ag6
(g10
S'\x0fIHb\x13=\xb4?'
p114
tp115
Rp116
aaa(lp117
g107
a(lp118
(F-0.4674811363220215
F-0.7673740386962891
F-3.141592502593994
F-1.5194079875946045
F-0.15684953331947327
F0.4398689270019531
F1.6206507682800293
tp119
a(F-0.24292151546154234
F-1.2217304763960306
F-2.565675269461092
F-1.2407701064103562
F-0.7652422751963112
F-0.3356357969178787
F2.1695612429983147
tp120
a(F0.3089932648484585
F-1.0953414314135224
F3.141592653589793
F-1.5300380952658645
F1.4494546289395218
F-0.42296453310457455
F-0.09984510123427552
tp121
ag6
(g10
S'\xc6\x94OB/j\xdf?'
p122
tp123
Rp124
ag6
(g10
S'\xecybj T\xd7?'
p125
tp126
Rp127
aaa(lp128
g118
a(lp129
(F-0.4674811363220215
F-0.7673740386962891
F-3.141592502593994
F-1.5194079875946045
F-0.15684953331947327
F0.4398689270019531
F1.6206507682800293
tp130
a(F0.023362486877314403
F-0.931726511484844
F-3.062331728423785
F-1.782261057541781
F-0.022452124758298275
F0.6013706684980958
F1.5381667728197588
tp131
a(F0.4606554865437569
F-1.2217304763960306
F1.529983630931075
F-1.5872252941234661
F-1.6923174720682586
F1.8942825368628278
F2.9607123378168194
tp132
ag6
(g10
S'\x00\x00\x00\x00\x00\x00\xf0?'
p133
tp134
Rp135
ag6
(g10
S'\xfb\xabv\xfb\xdb\x1a\xe8?'
p136
tp137
Rp138
aaa(lp139
g129
a(lp140
(F-0.4674811363220215
F-0.7673740386962891
F-3.141592502593994
F-1.5194079875946045
F-0.15684953331947327
F0.4398689270019531
F1.6206507682800293
tp141
a(F0.023362486877314403
F-0.931726511484844
F-3.062331728423785
F-1.782261057541781
F-0.022452124758298275
F0.6013706684980958
F1.5381667728197588
tp142
a(F0.7782795233831907
F-1.0114097520941925
F3.141592653589793
F-1.9972287494840864
F0.0023583412126293637
F0.5423547617383612
F1.5501058790399262
tp143
ag6
(g10
S'\x00\x00\x00\x00\x00\x00\x00\x00'
p144
tp145
Rp146
ag6
(g10
S'\x0fIHb\x13=\xb4?'
p147
tp148
Rp149
aaa(lp150
g140
a(lp151
(F-0.4674811363220215
F-0.7673740386962891
F-3.141592502593994
F-1.5194079875946045
F-0.15684953331947327
F0.4398689270019531
F1.6206507682800293
tp152
a(F0.02970962256738404
F-1.1699182562641064
F-3.0745378243217787
F-1.6533214012306483
F-0.058169106750832145
F0.23565079683025547
F1.5977660311757522
tp153
a(F-0.6455242028340787
F-0.9454440716902085
F3.141592653589793
F-1.861830703871969
F-1.7429364718835736
F1.1354648769215945
F2.2776733380455467
tp154
ag6
(g10
S'\x00\x00\x00\x00\x00\x00\x00\x00'
p155
tp156
Rp157
ag6
(g10
S'\xba\xf2\x03\xaa\xd5\x92\xee?'
p158
tp159
Rp160
aaa(lp161
g151
a(lp162
(F-0.4674811363220215
F-0.7673740386962891
F-3.141592502593994
F-1.5194079875946045
F-0.15684953331947327
F0.4398689270019531
F1.6206507682800293
tp163
a(F-0.24273034604875615
F-1.2217304763960306
F-2.5792216877178036
F-1.3081574136640632
F-0.8903122370333543
F-0.28049720348676155
F2.304893664902391
tp164
a(F-0.07716088107469053
F-1.2217304763960306
F2.04666950969184
F-1.6571520140698834
F-1.80520080951683
F1.8384720239746006
F2.7081918858733274
tp165
ag6
(g10
S's\x8e\xac!`\xeb\xe7?'
p166
tp167
Rp168
ag6
(g10
S'\x96ml\x13\x9d[\xee?'
p169
tp170
Rp171
aaa(lp172
g162
a(lp173
(F-0.4674811363220215
F-0.7673740386962891
F-3.141592502593994
F-1.5194079875946045
F-0.15684953331947327
F0.4398689270019531
F1.6206507682800293
tp174
a(F0.02305625896915416
F-0.9988645226060061
F-3.0620784821113967
F-1.7656741887176521
F-0.02202851694964096
F0.5178870110774344
F1.5436191794584575
tp175
a(F0.702929428922837
F-1.2217304763960306
F1.40561298520257
F-1.6321384740482456
F-1.6829560518301925
F1.7957220045318871
F3.0118062198936166
tp176
ag6
(g10
S'\x00\x00\x00\x00\x00\x00\xf0?'
p177
tp178
Rp179
ag6
(g10
S"'\x9e|\x18\xc8\xdd\xe4?"
p180
tp181
Rp182
aaa(lp183
g173
a(lp184
(F-0.4674811363220215
F-0.7673740386962891
F-3.141592502593994
F-1.5194079875946045
F-0.15684953331947327
F0.4398689270019531
F1.6206507682800293
tp185
a(F-0.24292151546154234
F-1.2217304763960306
F-2.565675269461092
F-1.2407701064103562
F-0.7652422751963112
F-0.3356357969178787
F2.1695612429983147
tp186
a(F-0.5218629722006386
F-0.7330534375396465
F3.141592653589793
F-1.4254160593863796
F-1.7697752589485105
F1.0920300595255594
F2.5404206583957936
tp187
ag6
(g10
S'\x00\x00\x00\x00\x00\x00\x00\x00'
p188
tp189
Rp190
ag6
(g10
S'\x00\x00\x00\x00\x00\x00\xf0?'
p191
tp192
Rp193
aaa(lp194
g184
a(lp195
(F-0.4674811363220215
F-0.7673740386962891
F-3.141592502593994
F-1.5194079875946045
F-0.15684953331947327
F0.4398689270019531
F1.6206507682800293
tp196
a(F0.023362486877314403
F-0.931726511484844
F-3.062331728423785
F-1.782261057541781
F-0.022452124758298275
F0.6013706684980958
F1.5381667728197588
tp197
a(F-0.41440785540592834
F-0.9680097040640182
F3.141592653589793
F-1.9081534169787373
F-1.5503548904981879
F0.9957879741564124
F2.2627337179017695
tp198
ag6
(g10
S'\x00\x00\x00\x00\x00\x00\x00\x00'
p199
tp200
Rp201
ag6
(g10
S'V\xf1|\xdf\xa7\x9d\xe9?'
p202
tp203
Rp204
aaa(lp205
g195
a(lp206
(F-0.4674811363220215
F-0.7673740386962891
F-3.141592502593994
F-1.5194079875946045
F-0.15684953331947327
F0.4398689270019531
F1.6206507682800293
tp207
a(F0.023362486877314403
F-0.931726511484844
F-3.062331728423785
F-1.782261057541781
F-0.022452124758298275
F0.6013706684980958
F1.5381667728197588
tp208
a(F-0.3901040003866743
F-0.8158614101639758
F3.141592653589793
F-1.5956731530683652
F-1.6376735643347857
F0.9835522498015525
F2.455018435372514
tp209
ag6
(g10
S'\x00\x00\x00\x00\x00\x00\x00\x00'
p210
tp211
Rp212
ag6
(g10
S'\xfc\xe7\x83\xf5W\xc4\xeb?'
p213
tp214
Rp215
aaa(lp216
g206
a(lp217
(F-0.4674811363220215
F-0.7673740386962891
F-3.141592502593994
F-1.5194079875946045
F-0.15684953331947327
F0.4398689270019531
F1.6206507682800293
tp218
a(F0.030342382978922233
F-1.188739359467188
F-3.0757292908752834
F-1.629454391123355
F-0.0727731519024954
F0.19315906592588783
F1.614207307929529
tp219
a(F0.7782795233831907
F-1.0114097520941925
F3.141592653589793
F-1.9972287494840864
F0.0023583412126293637
F0.5423547617383612
F1.5501058790399262
tp220
ag6
(g10
S'\x00\x00\x00\x00\x00\x00\x00\x00'
p221
tp222
Rp223
ag6
(g10
S'\x0fIHb\x13=\xb4?'
p224
tp225
Rp226
aaa(lp227
g217
a(lp228
(F-0.4674811363220215
F-0.7673740386962891
F-3.141592502593994
F-1.5194079875946045
F-0.15684953331947327
F0.4398689270019531
F1.6206507682800293
tp229
a(F-0.2004648811116091
F-1.2217304763960306
F-2.673583421976358
F-1.4367690243086488
F-1.2939864659177036
F-0.1700275178962145
F2.7417931640079525
tp230
a(F-0.7386256683728062
F-1.041782752697809
F3.141592653589793
F-2.059556726582685
F-1.7709982247280232
F1.1687549027288204
F2.158002940952318
tp231
ag6
(g10
S'\x00\x00\x00\x00\x00\x00\x00\x00'
p232
tp233
Rp234
ag6
(g10
S'\x96ml\x13\x9d[\xee?'
p235
tp236
Rp237
aaa(lp238
g228
a(lp239
(F-0.4674811363220215
F-0.7673740386962891
F-3.141592502593994
F-1.5194079875946045
F-0.15684953331947327
F0.4398689270019531
F1.6206507682800293
tp240
a(F-0.2015802516717397
F-1.2217304763960306
F-2.6714203493011164
F-1.434948968988609
F-1.2850775112620683
F-0.17159817906409208
F2.732258644408545
tp241
a(F0.5568527164964945
F-0.7738306106714761
F3.141592653589793
F-1.344342922836848
F-1.0431266992761619
F0.2302630162976423
F2.487239888961759
tp242
ag6
(g10
S'\xa1\xb5\x05$\x1c\xf3\xc1?'
p243
tp244
Rp245
ag6
(g10
S'\xdbQ\x14\xd6\x87\xdc\xd4?'
p246
tp247
Rp248
aaa(lp249
g239
a(lp250
(F-0.4674811363220215
F-0.7673740386962891
F-3.141592502593994
F-1.5194079875946045
F-0.15684953331947327
F0.4398689270019531
F1.6206507682800293
tp251
a(F-0.24292151546154234
F-1.2217304763960306
F-2.565675269461092
F-1.2407701064103562
F-0.7652422751963112
F-0.3356357969178787
F2.1695612429983147
tp252
a(F0.5568405464431577
F-0.7031467836767004
F3.141592653589793
F-1.3638858059542731
F-0.7728961585016155
F0.28630563954039273
F2.2079424369811362
tp253
ag6
(g10
S'\x00\x00\x00\x00\x00\x00\x00\x00'
p254
tp255
Rp256
ag6
(g10
S'\xdbQ\x14\xd6\x87\xdc\xd4?'
p257
tp258
Rp259
aaa(lp260
g250
a(lp261
(F-0.4674811363220215
F-0.7673740386962891
F-3.141592502593994
F-1.5194079875946045
F-0.15684953331947327
F0.4398689270019531
F1.6206507682800293
tp262
a(F0.023362486877314403
F-0.931726511484844
F-3.062331728423785
F-1.782261057541781
F-0.022452124758298275
F0.6013706684980958
F1.5381667728197588
tp263
a(F-0.5218629722006386
F-0.7330534375396465
F3.141592653589793
F-1.4254160593863796
F-1.7697752589485105
F1.0920300595255594
F2.5404206583957936
tp264
ag6
(g10
S'\x00\x00\x00\x00\x00\x00\x00\x00'
p265
tp266
Rp267
ag6
(g10
S'\x00\x00\x00\x00\x00\x00\xf0?'
p268
tp269
Rp270
aaa(lp271
g261
a(lp272
(F-0.4674811363220215
F-0.7673740386962891
F-3.141592502593994
F-1.5194079875946045
F-0.15684953331947327
F0.4398689270019531
F1.6206507682800293
tp273
a(F0.023362486877314403
F-0.931726511484844
F-3.062331728423785
F-1.782261057541781
F-0.022452124758298275
F0.6013706684980958
F1.5381667728197588
tp274
a(F0.4292646265420286
F-1.2217304763960306
F1.62963675197125
F-1.7706488887087124
F-1.7363225802676587
F1.797079627623196
F2.7715674675126216
tp275
ag6
(g10
S'Vd\xef\x9e)\xfa\xe8?'
p276
tp277
Rp278
ag6
(g10
S'\x11\'6\xe6k"\xe8?'
p279
tp280
Rp281
aaa(lp282
g272
a(lp283
(F-0.4674811363220215
F-0.7673740386962891
F-3.141592502593994
F-1.5194079875946045
F-0.15684953331947327
F0.4398689270019531
F1.6206507682800293
tp284
a(F0.028014461661376524
F-1.1406229623170694
F-3.07146826687731
F-1.6837146815660138
F-0.04309682141430802
F0.2950581323196229
F1.5795236067915226
tp285
a(F0.6529183365084684
F-1.2042868944631955
F3.141592653589793
F-1.4335843028020685
F0.48100432178559266
F-0.2439329684343632
F1.0293494467933333
tp286
ag6
(g10
S'_!\xe0\xdc\x92\x06\xe8?'
p287
tp288
Rp289
ag6
(g10
S'\xd8\xcf?~Mu\xc6?'
p290
tp291
Rp292
aaa(lp293
g283
a(lp294
(F-0.4674811363220215
F-0.7673740386962891
F-3.141592502593994
F-1.5194079875946045
F-0.15684953331947327
F0.4398689270019531
F1.6206507682800293
tp295
a(F-0.24292151546154234
F-1.2217304763960306
F-2.565675269461092
F-1.2407701064103562
F-0.7652422751963112
F-0.3356357969178787
F2.1695612429983147
tp296
a(F0.3667481994160828
F-1.2217304763960306
F2.8016229489836086
F-1.2418481418302252
F1.0679480404223016
F-0.8326726568330288
F0.42517507041285324
tp297
ag6
(g10
S'\x00\x00\x00\x00\x00\x00\xf0?'
p298
tp299
Rp300
ag6
(g10
S'\xaa\xb3EcN\xc9\xdb?'
p301
tp302
Rp303
aaa(lp304
g294
a(lp305
(F-0.4674811363220215
F-0.7673740386962891
F-3.141592502593994
F-1.5194079875946045
F-0.15684953331947327
F0.4398689270019531
F1.6206507682800293
tp306
a(F0.023362486877314403
F-0.931726511484844
F-3.062331728423785
F-1.782261057541781
F-0.022452124758298275
F0.6013706684980958
F1.5381667728197588
tp307
a(F1.1395459634458076
F-1.2217304763960306
F2.5594345255382938
F-1.846462520779029
F-1.0247593908052952
F0.2962763477783557
F2.649072721678684
tp308
ag6
(g10
S'z\x82\xb3\xdf\xd5\xb5\xdb?'
p309
tp310
Rp311
ag6
(g10
S'\x0fIHb\x13=\xb4?'
p312
tp313
Rp314
aaa(lp315
g305
a(lp316
(F-0.4674811363220215
F-0.7673740386962891
F-3.141592502593994
F-1.5194079875946045
F-0.15684953331947327
F0.4398689270019531
F1.6206507682800293
tp317
a(F-0.24292151546154234
F-1.2217304763960306
F-2.565675269461092
F-1.2407701064103562
F-0.7652422751963112
F-0.3356357969178787
F2.1695612429983147
tp318
a(F0.5568725489938281
F-0.953414438518474
F3.141592653589793
F-0.8183658073708441
F0.347817654424896
F-0.6168883963939663
F1.1683218392302466
tp319
ag6
(g10
S'\x00\x00\x00\x00\x00\x00\xf0?'
p320
tp321
Rp322
ag6
(g10
S'\xdbQ\x14\xd6\x87\xdc\xd4?'
p323
tp324
Rp325
aaa(lp326
g316
a(lp327
(F-0.4674811363220215
F-0.7673740386962891
F-3.141592502593994
F-1.5194079875946045
F-0.15684953331947327
F0.4398689270019531
F1.6206507682800293
tp328
a(F0.023362486877314403
F-0.931726511484844
F-3.062331728423785
F-1.782261057541781
F-0.022452124758298275
F0.6013706684980958
F1.5381667728197588
tp329
a(F-0.7386256683728062
F-1.041782752697809
F3.141592653589793
F-2.059556726582685
F-1.7709982247280232
F1.1687549027288204
F2.158002940952318
tp330
ag6
(g10
S'\x00\x00\x00\x00\x00\x00\x00\x00'
p331
tp332
Rp333
ag6
(g10
S'\x96ml\x13\x9d[\xee?'
p334
tp335
Rp336
aaa(lp337
g327
a(lp338
(F-0.4674811363220215
F-0.7673740386962891
F-3.141592502593994
F-1.5194079875946045
F-0.15684953331947327
F0.4398689270019531
F1.6206507682800293
tp339
a(F-0.24115393141320507
F-1.2217304763960306
F-2.5844877897491143
F-1.3215662799606047
F-0.9193314609901206
F-0.2692464278060938
F2.3364985799137648
tp340
a(F1.4656003458058242
F-1.2217304763960306
F1.5294374076653985
F-1.5925307889306748
F1.387555639748288
F-0.9959061743280573
F0.28495281388121163
tp341
ag6
(g10
S'\x8a\xa6h?\xc8\xd5\xef?'
p342
tp343
Rp344
ag6
(g10
S'\xf4oM>\xeaQ\xc4?'
p345
tp346
Rp347
aaa(lp348
g338
a(lp349
(F-0.4674811363220215
F-0.7673740386962891
F-3.141592502593994
F-1.5194079875946045
F-0.15684953331947327
F0.4398689270019531
F1.6206507682800293
tp350
a(F0.023362486877314403
F-0.931726511484844
F-3.062331728423785
F-1.782261057541781
F-0.022452124758298275
F0.6013706684980958
F1.5381667728197588
tp351
a(F1.2911050891778493
F-1.2217304763960306
F1.925383619845203
F-1.5631105593636108
F1.3669781053218153
F-0.7626256069987507
F0.3049519290586204
tp352
ag6
(g10
S'\xa7\x90>\xb15:\xec?'
p353
tp354
Rp355
ag6
(g10
S'\xcd\xe4\xcay\xf1\xcc\xb7?'
p356
tp357
Rp358
aaa(lp359
g349
a(lp360
(F-0.4674811363220215
F-0.7673740386962891
F-3.141592502593994
F-1.5194079875946045
F-0.15684953331947327
F0.4398689270019531
F1.6206507682800293
tp361
a(F-0.24292151546154234
F-1.2217304763960306
F-2.565675269461092
F-1.2407701064103562
F-0.7652422751963112
F-0.3356357969178787
F2.1695612429983147
tp362
a(F0.3652269785129479
F-1.2217304763960306
F2.699220300739448
F-1.254612399984234
F1.1470642757288492
F-0.9151575005664343
F0.35260379399675745
tp363
ag6
(g10
S'\x00\x00\x00\x00\x00\x00\xf0?'
p364
tp365
Rp366
ag6
(g10
S'\xf5oW\x98\xd5\x1e\xde?'
p367
tp368
Rp369
aaa(lp370
g360
a(lp371
(F-0.4674811363220215
F-0.7673740386962891
F-3.141592502593994
F-1.5194079875946045
F-0.15684953331947327
F0.4398689270019531
F1.6206507682800293
tp372
a(F0.030349864061453197
F-1.189499585609867
F-3.075746770327539
F-1.6284011354559622
F-0.07346960430709323
F0.19135335845096207
F1.61497102591011
tp373
a(F-0.5218629722006386
F-0.7330534375396465
F3.141592653589793
F-1.4254160593863796
F-1.7697752589485105
F1.0920300595255594
F2.5404206583957936
tp374
ag6
(g10
S'\x00\x00\x00\x00\x00\x00\x00\x00'
p375
tp376
Rp377
ag6
(g10
S'\x00\x00\x00\x00\x00\x00\xf0?'
p378
tp379
Rp380
aaa(lp381
g371
a(lp382
(F-0.4674811363220215
F-0.7673740386962891
F-3.141592502593994
F-1.5194079875946045
F-0.15684953331947327
F0.4398689270019531
F1.6206507682800293
tp383
a(F0.023362486877314403
F-0.931726511484844
F-3.062331728423785
F-1.782261057541781
F-0.022452124758298275
F0.6013706684980958
F1.5381667728197588
tp384
a(F0.44556027530090386
F-0.8200620427296864
F3.141592653589793
F-1.5275168939041983
F-0.9089155131230395
F0.38175897629185856
F2.2773513589631897
tp385
ag6
(g10
S'X\xa2l\x98\xa4\xf0\xae?'
p386
tp387
Rp388
ag6
(g10
S'\xba\xbaU\xcd!r\xd4?'
p389
tp390
Rp391
aaa(lp392
g382
a(lp393
(F-0.4674811363220215
F-0.7673740386962891
F-3.141592502593994
F-1.5194079875946045
F-0.15684953331947327
F0.4398689270019531
F1.6206507682800293
tp394
a(F0.02333087318450258
F-0.937093423381241
F-3.062293625530242
F-1.7813094214823781
F-0.022366047240693503
F0.595070702258051
F1.5385466146232107
tp395
a(F1.013693260023928
F-1.2217304763960306
F1.3151601586986996
F-1.6641177901371362
F-1.6773719557721065
F1.6019064399500391
F3.105983855619723
tp396
ag6
(g10
S'\x00\x00\x00\x00\x00\x00\xf0?'
p397
tp398
Rp399
ag6
(g10
S'=\xd7Zi\xd5]\xe0?'
p400
tp401
Rp402
aaa(lp403
g393
a(lp404
(F-0.4674811363220215
F-0.7673740386962891
F-3.141592502593994
F-1.5194079875946045
F-0.15684953331947327
F0.4398689270019531
F1.6206507682800293
tp405
a(F-0.24292151546154234
F-1.2217304763960306
F-2.565675269461092
F-1.2407701064103562
F-0.7652422751963112
F-0.3356357969178787
F2.1695612429983147
tp406
a(F0.8266318598424377
F-1.2217304763960306
F1.35943212500605
F-1.648562802394661
F-1.6796323013405505
F1.728464986958915
F3.045140396373655
tp407
ag6
(g10
S'\x00\x00\x00\x00\x00\x00\xf0?'
p408
tp409
Rp410
ag6
(g10
S'\xd3\xa4\xa9\x7f\x03%\xe3?'
p411
tp412
Rp413
aaa(lp414
g404
a(lp415
(F-0.4674811363220215
F-0.7673740386962891
F-3.141592502593994
F-1.5194079875946045
F-0.15684953331947327
F0.4398689270019531
F1.6206507682800293
tp416
a(F0.023362486877314403
F-0.931726511484844
F-3.062331728423785
F-1.782261057541781
F-0.022452124758298275
F0.6013706684980958
F1.5381667728197588
tp417
a(F0.37845148902822684
F-1.0763401038509277
F3.141592653589793
F-2.1304639767852196
F-0.6004075683917404
F0.6691936907477264
F1.865686461410805
tp418
ag6
(g10
S'\x00\x00\x00\x00\x00\x00\x00\x00'
p419
tp420
Rp421
ag6
(g10
S'\xf3g\x99\x85G\xbf\xcc?'
p422
tp423
Rp424
aaa(lp425
g415
a(lp426
(F-0.4674811363220215
F-0.7673740386962891
F-3.141592502593994
F-1.5194079875946045
F-0.15684953331947327
F0.4398689270019531
F1.6206507682800293
tp427
a(F0.023362486877314403
F-0.931726511484844
F-3.062331728423785
F-1.782261057541781
F-0.022452124758298275
F0.6013706684980958
F1.5381667728197588
tp428
a(F0.6116730934838777
F-0.8125517770794984
F3.141592653589793
F-1.5888713068084643
F-0.43699527463076077
F0.3587460779868012
F1.8923906648077158
tp429
ag6
(g10
S'\x00\x00\x00\x00\x00\x00\x00\x00'
p430
tp431
Rp432
ag6
(g10
S'D\xba}\xdd\x0f\xe5\xcd?'
p433
tp434
Rp435
aaa(lp436
g426
a(lp437
(F-0.4674811363220215
F-0.7673740386962891
F-3.141592502593994
F-1.5194079875946045
F-0.15684953331947327
F0.4398689270019531
F1.6206507682800293
tp438
a(F0.023362486877314403
F-0.931726511484844
F-3.062331728423785
F-1.782261057541781
F-0.022452124758298275
F0.6013706684980958
F1.5381667728197588
tp439
a(F-0.7386256683728062
F-1.041782752697809
F3.141592653589793
F-2.059556726582685
F-1.7709982247280232
F1.1687549027288204
F2.158002940952318
tp440
ag6
(g10
S'\x00\x00\x00\x00\x00\x00\x00\x00'
p441
tp442
Rp443
ag6
(g10
S'\x96ml\x13\x9d[\xee?'
p444
tp445
Rp446
aaa(lp447
g437
a(lp448
(F-0.4674811363220215
F-0.7673740386962891
F-3.141592502593994
F-1.5194079875946045
F-0.15684953331947327
F0.4398689270019531
F1.6206507682800293
tp449
a(F-0.24292151546154234
F-1.2217304763960306
F-2.565675269461092
F-1.2407701064103562
F-0.7652422751963112
F-0.3356357969178787
F2.1695612429983147
tp450
a(F-0.03551548514498828
F-1.2217304763960306
F2.9749366133684596
F-1.4684949261645734
F1.253370974061169
F-0.9412306490150791
F-0.0011319829356454046
tp451
ag6
(g10
S'\xf5\xe9\x15\xa4\xd2\xd6\xe7?'
p452
tp453
Rp454
ag6
(g10
S'\xab\xd2x\x05\xbc\xd9\xe4?'
p455
tp456
Rp457
aaa(lp458
g448
a(lp459
(F-0.4674811363220215
F-0.7673740386962891
F-3.141592502593994
F-1.5194079875946045
F-0.15684953331947327
F0.4398689270019531
F1.6206507682800293
tp460
a(F0.028561711100414805
F-1.2172717986134383
F-3.072870690612971
F-1.5836374824569601
F-0.10647696769861344
F0.11901506445936519
F1.6496317482201102
tp461
a(F1.4771309034720086
F-1.2217304763960306
F1.586532806333376
F-1.5666511954327023
F1.3586126001161711
F-0.9351384901242759
F0.33671966144210214
tp462
ag6
(g10
S'\x00\x00\x00\x00\x00\x00\xf0?'
p463
tp464
Rp465
ag6
(g10
S'I\x909\xcf\xcd\xf6\xbe?'
p466
tp467
Rp468
aaa(lp469
g459
a(lp470
(F-0.4674811363220215
F-0.7673740386962891
F-3.141592502593994
F-1.5194079875946045
F-0.15684953331947327
F0.4398689270019531
F1.6206507682800293
tp471
a(F-0.23702680035055712
F-1.2217304763960306
F-2.5959414614832355
F-1.3450326619252315
F-0.9748741690735805
F-0.2493532631579774
F2.3970106722808158
tp472
a(F0.5568405464431577
F-0.7031467836767004
F3.141592653589793
F-1.3638858059542731
F-0.7728961585016155
F0.28630563954039273
F2.2079424369811362
tp473
ag6
(g10
S'\x00\x00\x00\x00\x00\x00\x00\x00'
p474
tp475
Rp476
ag6
(g10
S'\xdbQ\x14\xd6\x87\xdc\xd4?'
p477
tp478
Rp479
aaa(lp480
g470
a(lp481
(F-0.4674811363220215
F-0.7673740386962891
F-3.141592502593994
F-1.5194079875946045
F-0.15684953331947327
F0.4398689270019531
F1.6206507682800293
tp482
a(F-0.1830849341634701
F-1.2217304763960306
F-2.706565522962614
F-1.461664343136622
F-1.4338466657807545
F-0.14878279574698877
F2.8908557751236508
tp483
a(F0.1860124406454339
F-1.2217304763960306
F1.7231509736643342
F-1.51720476086102
F-1.7080519740383722
F1.9558359171595
F2.9268866314848383
tp484
ag6
(g10
S'\x00\x00\x00\x00\x00\x00\xf0?'
p485
tp486
Rp487
ag6
(g10
S'u\xfbR&m\xa4\xeb?'
p488
tp489
Rp490
aaa(lp491
g481
a(lp492
(F-0.4674811363220215
F-0.7673740386962891
F-3.141592502593994
F-1.5194079875946045
F-0.15684953331947327
F0.4398689270019531
F1.6206507682800293
tp493
a(F0.023362486877314403
F-0.931726511484844
F-3.062331728423785
F-1.782261057541781
F-0.022452124758298275
F0.6013706684980958
F1.5381667728197588
tp494
a(F-0.5262204798093043
F-0.7433907539007107
F3.141592653589793
F-1.4466788412076577
F-1.7666807269287765
F1.0931667049120448
F2.527615210600912
tp495
ag6
(g10
S'\x00\x00\x00\x00\x00\x00\x00\x00'
p496
tp497
Rp498
ag6
(g10
S'\xa6a\xb6\xe6\x02\xea\xef?'
p499
tp500
Rp501
aaa(lp502
g492
a(lp503
(F-0.4674811363220215
F-0.7673740386962891
F-3.141592502593994
F-1.5194079875946045
F-0.15684953331947327
F0.4398689270019531
F1.6206507682800293
tp504
a(F0.023362486877314403
F-0.931726511484844
F-3.062331728423785
F-1.782261057541781
F-0.022452124758298275
F0.6013706684980958
F1.5381667728197588
tp505
a(F0.7782795233831907
F-1.0114097520941925
F3.141592653589793
F-1.9972287494840864
F0.0023583412126293637
F0.5423547617383612
F1.5501058790399262
tp506
ag6
(g10
S'\x00\x00\x00\x00\x00\x00\x00\x00'
p507
tp508
Rp509
ag6
(g10
S'\x0fIHb\x13=\xb4?'
p510
tp511
Rp512
aaa(lp513
g503
a(lp514
(F-0.4674811363220215
F-0.7673740386962891
F-3.141592502593994
F-1.5194079875946045
F-0.15684953331947327
F0.4398689270019531
F1.6206507682800293
tp515
a(F0.023362486877314403
F-0.931726511484844
F-3.062331728423785
F-1.782261057541781
F-0.022452124758298275
F0.6013706684980958
F1.5381667728197588
tp516
a(F-0.15604463914299005
F-0.9143832399893826
F3.141592653589793
F-1.741782907015054
F-1.4264320048760835
F0.8232018428891864
F2.3868696240507354
tp517
ag6
(g10
S'\xa0]\xf7\x13R?\xa4?'
p518
tp519
Rp520
ag6
(g10
S'k\xad\xed\xadrm\xe5?'
p521
tp522
Rp523
aaa(lp524
g514
a(lp525
(F-0.4674811363220215
F-0.7673740386962891
F-3.141592502593994
F-1.5194079875946045
F-0.15684953331947327
F0.4398689270019531
F1.6206507682800293
tp526
a(F0.023362486877314403
F-0.931726511484844
F-3.062331728423785
F-1.782261057541781
F-0.022452124758298275
F0.6013706684980958
F1.5381667728197588
tp527
a(F1.4386789866136793
F-1.2217304763960306
F1.9328165215395456
F-1.4442038150631027
F1.1404213142637678
F-0.6736679163108559
F0.6149133521930059
tp528
ag6
(g10
S'\x00\x00\x00\x00\x00\x00\xf0?'
p529
tp530
Rp531
ag6
(g10
S'\xb1\xc53\x9e\xe8\xe3\xa5?'
p532
tp533
Rp534
aaa(lp535
g525
a(lp536
(F-0.4674811363220215
F-0.7673740386962891
F-3.141592502593994
F-1.5194079875946045
F-0.15684953331947327
F0.4398689270019531
F1.6206507682800293
tp537
a(F0.023362486877314403
F-0.931726511484844
F-3.062331728423785
F-1.782261057541781
F-0.022452124758298275
F0.6013706684980958
F1.5381667728197588
tp538
a(F0.7782795233831907
F-1.0114097520941925
F3.141592653589793
F-1.9972287494840864
F0.0023583412126293637
F0.5423547617383612
F1.5501058790399262
tp539
ag6
(g10
S'\x00\x00\x00\x00\x00\x00\x00\x00'
p540
tp541
Rp542
ag6
(g10
S'\x0fIHb\x13=\xb4?'
p543
tp544
Rp545
aaa(lp546
g536
a(lp547
(F-0.4674811363220215
F-0.7673740386962891
F-3.141592502593994
F-1.5194079875946045
F-0.15684953331947327
F0.4398689270019531
F1.6206507682800293
tp548
a(F-0.24437181277929645
F-1.2217304763960306
F-2.569546692813269
F-1.2730031426455852
F-0.8214689716554388
F-0.309562405048861
F2.2301254120846634
tp549
a(F-0.5742199706085674
F-0.8403337427360766
F3.141592653589793
F-1.645961068531246
F-1.745200902229451
F1.1087428239445194
F2.40759286654674
tp550
ag6
(g10
S'\x00\x00\x00\x00\x00\x00\x00\x00'
p551
tp552
Rp553
ag6
(g10
S'\xd4F\xc5tm+\xef?'
p554
tp555
Rp556
aaa(lp557
g547
a(lp558
(F-0.4674811363220215
F-0.7673740386962891
F-3.141592502593994
F-1.5194079875946045
F-0.15684953331947327
F0.4398689270019531
F1.6206507682800293
tp559
a(F0.02478282015494435
F-1.0760571805146708
F-3.065506383872363
F-1.7312569592358151
F-0.02739816188196904
F0.4066881867258068
F1.55678479287823
tp560
a(F-0.6249793009951591
F-0.918689810687689
F3.141592653589793
F-1.806900819532989
F-1.7408753933866057
F1.1276996422033598
F2.310744595024798
tp561
ag6
(g10
S'\x00\x00\x00\x00\x00\x00\x00\x00'
p562
tp563
Rp564
ag6
(g10
S"\x13H'sQ\xb2\xee?"
p565
tp566
Rp567
aaa(lp568
g558
a(lp569
(F-0.4674811363220215
F-0.7673740386962891
F-3.141592502593994
F-1.5194079875946045
F-0.15684953331947327
F0.4398689270019531
F1.6206507682800293
tp570
a(F0.023362486877314403
F-0.931726511484844
F-3.062331728423785
F-1.782261057541781
F-0.022452124758298275
F0.6013706684980958
F1.5381667728197588
tp571
a(F1.4082052321685277
F-1.2217304763960306
F2.036903510354779
F-1.4102685844402225
F1.0517874715795839
F-0.6188754376579236
F0.7071477140249556
tp572
ag6
(g10
S'\x00\x00\x00\x00\x00\x00\xf0?'
p573
tp574
Rp575
ag6
(g10
S'\x0fIHb\x13=\xb4?'
p576
tp577
Rp578
aaa(lp579
g569
a(lp580
(F-0.4674811363220215
F-0.7673740386962891
F-3.141592502593994
F-1.5194079875946045
F-0.15684953331947327
F0.4398689270019531
F1.6206507682800293
tp581
a(F-0.24292151546154234
F-1.2217304763960306
F-2.565675269461092
F-1.2407701064103562
F-0.7652422751963112
F-0.3356357969178787
F2.1695612429983147
tp582
a(F-0.5520272615598839
F-0.7989051913184144
F3.141592653589793
F-1.560822863094789
F-1.752570998667054
F1.1009804972997776
F2.4588643768087795
tp583
ag6
(g10
S'\x00\x00\x00\x00\x00\x00\x00\x00'
p584
tp585
Rp586
ag6
(g10
S'4\x81\x06\t\xbdx\xef?'
p587
tp588
Rp589
aaa(lp590
g580
a(lp591
(F-0.4674811363220215
F-0.7673740386962891
F-3.141592502593994
F-1.5194079875946045
F-0.15684953331947327
F0.4398689270019531
F1.6206507682800293
tp592
a(F0.023035209382625807
F-1.0060472260138054
F-3.0620804972595095
F-1.7632398746627507
F-0.022084528018659594
F0.5082969229069153
F1.5443089772377327
tp593
a(F-0.5218629722006386
F-0.7330534375396465
F3.141592653589793
F-1.4254160593863796
F-1.7697752589485105
F1.0920300595255594
F2.5404206583957936
tp594
ag6
(g10
S'\x00\x00\x00\x00\x00\x00\x00\x00'
p595
tp596
Rp597
ag6
(g10
S'\x00\x00\x00\x00\x00\x00\xf0?'
p598
tp599
Rp600
aaa(lp601
g591
a(lp602
(F-0.4674811363220215
F-0.7673740386962891
F-3.141592502593994
F-1.5194079875946045
F-0.15684953331947327
F0.4398689270019531
F1.6206507682800293
tp603
a(F0.02605033990237488
F-1.1038854991331983
F-3.0678644672896427
F-1.7134125804016593
F-0.032333247316899745
F0.3612059015739095
F1.5647488223080555
tp604
a(F1.0564244857571012
F-1.2217304763960306
F1.4998019225405388
F-1.9029849363721885
F-1.6134695548816698
F1.3643484474241114
F2.8993526696644434
tp605
ag6
(g10
S'\xb3h\xd8\x16\xe7S\xe6?'
p606
tp607
Rp608
ag6
(g10
S'\xf3\xe0*\x8c\x13H\xdc?'
p609
tp610
Rp611
aaa(lp612
g602
a(lp613
(F-0.4674811363220215
F-0.7673740386962891
F-3.141592502593994
F-1.5194079875946045
F-0.15684953331947327
F0.4398689270019531
F1.6206507682800293
tp614
a(F0.025219024142184857
F-1.086166393298394
F-3.0663212844919996
F-1.7251739722711161
F-0.028958057777035348
F0.3905630834457711
F1.5594425471125104
tp615
a(F0.3209123201534753
F-0.9175552983945797
F3.141592653589793
F-1.6408402552677184
F-1.0752079230993776
F0.4692694234126302
F2.370003225227874
tp616
ag6
(g10
S'V\xbd\x84\x90"\x18\xbf?'
p617
tp618
Rp619
ag6
(g10
S')[2K2\xfa\xd6?'
p620
tp621
Rp622
aaa(lp623
g613
a(lp624
(F-0.4674811363220215
F-0.7673740386962891
F-3.141592502593994
F-1.5194079875946045
F-0.15684953331947327
F0.4398689270019531
F1.6206507682800293
tp625
a(F0.023362486877314403
F-0.931726511484844
F-3.062331728423785
F-1.782261057541781
F-0.022452124758298275
F0.6013706684980958
F1.5381667728197588
tp626
a(F0.016604178155127814
F-1.0343670482093623
F1.6359412586428128
F-1.4316332893271817
F-1.5158752246488625
F2.1768551671866607
F2.907803410089788
tp627
ag6
(g10
S'\x00\x00\x00\x00\x00\x00\xf0?'
p628
tp629
Rp630
ag6
(g10
S'\x96ml\x13\x9d[\xee?'
p631
tp632
Rp633
aaa(lp634
g624
a(lp635
(F-0.4674811363220215
F-0.7673740386962891
F-3.141592502593994
F-1.5194079875946045
F-0.15684953331947327
F0.4398689270019531
F1.6206507682800293
tp636
a(F-0.24292151546154234
F-1.2217304763960306
F-2.565675269461092
F-1.2407701064103562
F-0.7652422751963112
F-0.3356357969178787
F2.1695612429983147
tp637
a(F0.9959708356108421
F-0.9564880885021767
F2.26366674992882
F-2.251474735072685
F-0.795847278032371
F1.0489505439565279
F2.2757715835375962
tp638
ag6
(g10
S'\x00\x00\x00\x00\x00\x00\x00\x00'
p639
tp640
Rp641
ag6
(g10
S'\xcf\xff\xf3\xbb0\xc0\xc6?'
p642
tp643
Rp644
aaa(lp645
g635
a(lp646
(F-0.4674811363220215
F-0.7673740386962891
F-3.141592502593994
F-1.5194079875946045
F-0.15684953331947327
F0.4398689270019531
F1.6206507682800293
tp647
a(F0.023715372720596935
F-1.0478615989660984
F-3.0634939670723744
F-1.7461031583471593
F-0.024128030712397042
F0.44955308193337196
F1.5504742470174622
tp648
a(F-0.09761433926012275
F-1.2217304763960306
F2.0879872723147312
F-1.6985568075121351
F-1.8166475650891678
F1.805469969783366
F2.6659941861591867
tp649
ag6
(g10
S'f\xb2:\xb6\xba1\xe6?'
p650
tp651
Rp652
ag6
(g10
S'\x96ml\x13\x9d[\xee?'
p653
tp654
Rp655
aaa(lp656
g646
a(lp657
(F-0.4674811363220215
F-0.7673740386962891
F-3.141592502593994
F-1.5194079875946045
F-0.15684953331947327
F0.4398689270019531
F1.6206507682800293
tp658
a(F-0.24292151546154234
F-1.2217304763960306
F-2.565675269461092
F-1.2407701064103562
F-0.7652422751963112
F-0.3356357969178787
F2.1695612429983147
tp659
a(F0.10522875483527191
F-1.064531872579303
F1.6000733577929305
F-1.4746111267633204
F-1.5478044015636663
F2.1393384902746213
F2.90907950411081
tp660
ag6
(g10
S'\x00\x00\x00\x00\x00\x00\xf0?'
p661
tp662
Rp663
ag6
(g10
S'\xa6)Cs\n\x03\xed?'
p664
tp665
Rp666
aaa(lp667
g657
a(lp668
(F-0.4674811363220215
F-0.7673740386962891
F-3.141592502593994
F-1.5194079875946045
F-0.15684953331947327
F0.4398689270019531
F1.6206507682800293
tp669
a(F0.023362486877314403
F-0.931726511484844
F-3.062331728423785
F-1.782261057541781
F-0.022452124758298275
F0.6013706684980958
F1.5381667728197588
tp670
a(F-0.7386256683728062
F-1.041782752697809
F3.141592653589793
F-2.059556726582685
F-1.7709982247280232
F1.1687549027288204
F2.158002940952318
tp671
ag6
(g10
S'\x00\x00\x00\x00\x00\x00\x00\x00'
p672
tp673
Rp674
ag6
(g10
S'\x96ml\x13\x9d[\xee?'
p675
tp676
Rp677
aaa(lp678
g668
a(lp679
(F-0.4674811363220215
F-0.7673740386962891
F-3.141592502593994
F-1.5194079875946045
F-0.15684953331947327
F0.4398689270019531
F1.6206507682800293
tp680
a(F0.023362486877314403
F-0.931726511484844
F-3.062331728423785
F-1.782261057541781
F-0.022452124758298275
F0.6013706684980958
F1.5381667728197588
tp681
a(F0.7782795233831907
F-1.0114097520941925
F3.141592653589793
F-1.9972287494840864
F0.0023583412126293637
F0.5423547617383612
F1.5501058790399262
tp682
ag6
(g10
S'\x00\x00\x00\x00\x00\x00\x00\x00'
p683
tp684
Rp685
ag6
(g10
S'\x0fIHb\x13=\xb4?'
p686
tp687
Rp688
aaa(lp689
g679
a(lp690
(F-0.4674811363220215
F-0.7673740386962891
F-3.141592502593994
F-1.5194079875946045
F-0.15684953331947327
F0.4398689270019531
F1.6206507682800293
tp691
a(F0.023362486877314403
F-0.931726511484844
F-3.062331728423785
F-1.782261057541781
F-0.022452124758298275
F0.6013706684980958
F1.5381667728197588
tp692
a(F0.6757726749542377
F-1.2217304763960306
F1.5574182856697074
F-1.57724721246501
F1.47349775391628
F-1.6749475431536456
F-0.07051341581551909
tp693
ag6
(g10
S'\x00\x00\x00\x00\x00\x00\xf0?'
p694
tp695
Rp696
ag6
(g10
S'#Xa\x1d\xca\xff\xe3?'
p697
tp698
Rp699
aaa(lp700
g690
a(lp701
(F-0.4674811363220215
F-0.7673740386962891
F-3.141592502593994
F-1.5194079875946045
F-0.15684953331947327
F0.4398689270019531
F1.6206507682800293
tp702
a(F0.023362486877314403
F-0.931726511484844
F-3.062331728423785
F-1.782261057541781
F-0.022452124758298275
F0.6013706684980958
F1.5381667728197588
tp703
a(F0.3365658011545907
F-1.1723953529034468
F3.141592653589793
F-1.1541245492386492
F0.7145177421365165
F-0.628187390196526
F0.7401101448562573
tp704
ag6
(g10
S'\x00\x00\x00\x00\x00\x00\xf0?'
p705
tp706
Rp707
ag6
(g10
S'Z\xc0\xf4\xbc\xec\x89\xd6?'
p708
tp709
Rp710
aaa(lp711
g701
a(lp712
(F-0.4674811363220215
F-0.7673740386962891
F-3.141592502593994
F-1.5194079875946045
F-0.15684953331947327
F0.4398689270019531
F1.6206507682800293
tp713
a(F0.023362486877314403
F-0.931726511484844
F-3.062331728423785
F-1.782261057541781
F-0.022452124758298275
F0.6013706684980958
F1.5381667728197588
tp714
a(F-0.7298155306776972
F-1.0479742461217667
F3.141592653589793
F-2.072261369251744
F-1.7611309393471144
F1.1629775272759908
F2.1520224662489027
tp715
ag6
(g10
S'\x00\x00\x00\x00\x00\x00\x00\x00'
p716
tp717
Rp718
ag6
(g10
S'\xc4a\xc4\x17\xa8\x14\xee?'
p719
tp720
Rp721
aaa(lp722
g712
a(lp723
(F-0.4674811363220215
F-0.7673740386962891
F-3.141592502593994
F-1.5194079875946045
F-0.15684953331947327
F0.4398689270019531
F1.6206507682800293
tp724
a(F0.02333725949143265
F-1.0362379981825007
F-3.0627738756064984
F-1.7514044410567058
F-0.02315170251762223
F0.4664087808241355
F1.5482551560111613
tp725
a(F-0.5218629722006386
F-0.7330534375396465
F3.141592653589793
F-1.4254160593863796
F-1.7697752589485105
F1.0920300595255594
F2.5404206583957936
tp726
ag6
(g10
S'\x00\x00\x00\x00\x00\x00\x00\x00'
p727
tp728
Rp729
ag6
(g10
S'\x00\x00\x00\x00\x00\x00\xf0?'
p730
tp731
Rp732
aaa(lp733
g723
a(lp734
(F-0.4674811363220215
F-0.7673740386962891
F-3.141592502593994
F-1.5194079875946045
F-0.15684953331947327
F0.4398689270019531
F1.6206507682800293
tp735
a(F0.023362486877314403
F-0.931726511484844
F-3.062331728423785
F-1.782261057541781
F-0.022452124758298275
F0.6013706684980958
F1.5381667728197588
tp736
a(F-0.44471287008798077
F-0.7863355272134956
F3.141592653589793
F-1.534984335989719
F-1.6928237193918398
F1.0258035369679175
F2.487356221875825
tp737
ag6
(g10
S'\x00\x00\x00\x00\x00\x00\x00\x00'
p738
tp739
Rp740
ag6
(g10
S'\xd3\xbe\xa2\xc4mr\xed?'
p741
tp742
Rp743
aaa(lp744
g734
a(lp745
(F-0.4674811363220215
F-0.7673740386962891
F-3.141592502593994
F-1.5194079875946045
F-0.15684953331947327
F0.4398689270019531
F1.6206507682800293
tp746
a(F0.023362486877314403
F-0.931726511484844
F-3.062331728423785
F-1.782261057541781
F-0.022452124758298275
F0.6013706684980958
F1.5381667728197588
tp747
a(F0.7782795233831907
F-1.0114097520941925
F3.141592653589793
F-1.9972287494840864
F0.0023583412126293637
F0.5423547617383612
F1.5501058790399262
tp748
ag6
(g10
S'\x00\x00\x00\x00\x00\x00\x00\x00'
p749
tp750
Rp751
ag6
(g10
S'\x0fIHb\x13=\xb4?'
p752
tp753
Rp754
aaa(lp755
g745
a(lp756
(F-0.4674811363220215
F-0.7673740386962891
F-3.141592502593994
F-1.5194079875946045
F-0.15684953331947327
F0.4398689270019531
F1.6206507682800293
tp757
a(F0.02318185985947292
F-0.9659464259546907
F-3.062141419525018
F-1.7751246632416813
F-0.022045257055390222
F0.56013493590041
F1.5407428062721387
tp758
a(F0.016604178155127814
F-1.0343670482093623
F1.6359412586428128
F-1.4316332893271817
F-1.5158752246488625
F2.1768551671866607
F2.907803410089788
tp759
ag6
(g10
S'\x00\x00\x00\x00\x00\x00\xf0?'
p760
tp761
Rp762
ag6
(g10
S'\x96ml\x13\x9d[\xee?'
p763
tp764
Rp765
aaa(lp766
g756
a(lp767
(F-0.4674811363220215
F-0.7673740386962891
F-3.141592502593994
F-1.5194079875946045
F-0.15684953331947327
F0.4398689270019531
F1.6206507682800293
tp768
a(F-0.24292151546154234
F-1.2217304763960306
F-2.565675269461092
F-1.2407701064103562
F-0.7652422751963112
F-0.3356357969178787
F2.1695612429983147
tp769
a(F1.468630688422387
F-1.2217304763960306
F1.7956665669145144
F-1.491415108456409
F1.2405431416795227
F-0.7603204364191362
F0.5010471160639146
tp770
ag6
(g10
S'\x00\x00\x00\x00\x00\x00\xf0?'
p771
tp772
Rp773
ag6
(g10
S'\xaby\x9c\x04\xc6\x8f\x8a?'
p774
tp775
Rp776
aaa(lp777
g767
a(lp778
(F-0.4674811363220215
F-0.7673740386962891
F-3.141592502593994
F-1.5194079875946045
F-0.15684953331947327
F0.4398689270019531
F1.6206507682800293
tp779
a(F-0.24292151546154234
F-1.2217304763960306
F-2.565675269461092
F-1.2407701064103562
F-0.7652422751963112
F-0.3356357969178787
F2.1695612429983147
tp780
a(F-0.5218629722006386
F-0.7330534375396465
F3.141592653589793
F-1.4254160593863796
F-1.7697752589485105
F1.0920300595255594
F2.5404206583957936
tp781
ag6
(g10
S'\x00\x00\x00\x00\x00\x00\x00\x00'
p782
tp783
Rp784
ag6
(g10
S'\x00\x00\x00\x00\x00\x00\xf0?'
p785
tp786
Rp787
aaa(lp788
g778
a(lp789
(F-0.4674811363220215
F-0.7673740386962891
F-3.141592502593994
F-1.5194079875946045
F-0.15684953331947327
F0.4398689270019531
F1.6206507682800293
tp790
a(F0.023362486877314403
F-0.931726511484844
F-3.062331728423785
F-1.782261057541781
F-0.022452124758298275
F0.6013706684980958
F1.5381667728197588
tp791
a(F-0.19777177511114455
F-1.2217304763960306
F2.3471349438011155
F-1.6109629900141733
F-1.8074442679410772
F1.6583328988012809
F2.7651981951151274
tp792
ag6
(g10
S'~\xd0\xbd\xeb+\x8c\xe6?'
p793
tp794
Rp795
ag6
(g10
S'?Q\xea\xd3xt\xee?'
p796
tp797
Rp798
aaa(lp799
g789
a(lp800
(F-0.4674811363220215
F-0.7673740386962891
F-3.141592502593994
F-1.5194079875946045
F-0.15684953331947327
F0.4398689270019531
F1.6206507682800293
tp801
a(F0.0300395735379239
F-1.177286083448827
F-3.075143877163211
F-1.6444528670117653
F-0.06332510433607197
F0.21949122978901192
F1.6036736503750406
tp802
a(F0.34012296950447657
F-1.2217304763960306
F2.6509593270647844
F-1.2617582599091393
F1.1892004311343516
F-0.9759284134275336
F0.3059401527308841
tp803
ag6
(g10
S'\x00\x00\x00\x00\x00\x00\xf0?'
p804
tp805
Rp806
ag6
(g10
S'\xf4o:\xf6T(\xe0?'
p807
tp808
Rp809
aaa(lp810
g800
a(lp811
(F-0.4674811363220215
F-0.7673740386962891
F-3.141592502593994
F-1.5194079875946045
F-0.15684953331947327
F0.4398689270019531
F1.6206507682800293
tp812
a(F0.023362486877314403
F-0.931726511484844
F-3.062331728423785
F-1.782261057541781
F-0.022452124758298275
F0.6013706684980958
F1.5381667728197588
tp813
a(F0.3188769907914147
F-1.003017179635516
F3.141592653589793
F-1.9800051130138414
F-0.7470156607863296
F0.628480082983079
F1.9859922060165967
tp814
ag6
(g10
S'\x00\x00\x00\x00\x00\x00\x00\x00'
p815
tp816
Rp817
ag6
(g10
S'5W\xb6\x0ee>\xd2?'
p818
tp819
Rp820
aaa(lp821
g811
a(lp822
(F-0.4674811363220215
F-0.7673740386962891
F-3.141592502593994
F-1.5194079875946045
F-0.15684953331947327
F0.4398689270019531
F1.6206507682800293
tp823
a(F-0.24292151546154234
F-1.2217304763960306
F-2.565675269461092
F-1.2407701064103562
F-0.7652422751963112
F-0.3356357969178787
F2.1695612429983147
tp824
a(F-0.521858331834322
F-0.8780322855677763
F3.141592653589793
F-1.364223818519905
F-1.8675231073373155
F1.1428404354905846
F2.7628151281893913
tp825
ag6
(g10
S'j\xe6z\xce\x15E\xd3?'
p826
tp827
Rp828
ag6
(g10
S'\x00\x00\x00\x00\x00\x00\xf0?'
p829
tp830
Rp831
aaa(lp832
g822
a(lp833
(F-0.4674811363220215
F-0.7673740386962891
F-3.141592502593994
F-1.5194079875946045
F-0.15684953331947327
F0.4398689270019531
F1.6206507682800293
tp834
a(F0.023362486877314403
F-0.931726511484844
F-3.062331728423785
F-1.782261057541781
F-0.022452124758298275
F0.6013706684980958
F1.5381667728197588
tp835
a(F0.5568405464431577
F-0.7031467836767004
F3.141592653589793
F-1.3638858059542731
F-0.7728961585016155
F0.28630563954039273
F2.2079424369811362
tp836
ag6
(g10
S'\x00\x00\x00\x00\x00\x00\x00\x00'
p837
tp838
Rp839
ag6
(g10
S'\xdbQ\x14\xd6\x87\xdc\xd4?'
p840
tp841
Rp842
aaa(lp843
g833
a(lp844
(F-0.4674811363220215
F-0.7673740386962891
F-3.141592502593994
F-1.5194079875946045
F-0.15684953331947327
F0.4398689270019531
F1.6206507682800293
tp845
a(F0.030301891864282123
F-1.1973130691925207
F-3.0757150713515045
F-1.617110638878132
F-0.08119257345153706
F0.1723261406332415
F1.6233391041723075
tp846
a(F0.06930846462060215
F-1.0569565543919361
F1.6198333306905879
F-1.4581980467123776
F-1.5404808454976862
F2.150187597482026
F2.907744869120478
tp847
ag6
(g10
S'\x00\x00\x00\x00\x00\x00\xf0?'
p848
tp849
Rp850
ag6
(g10
S'F\xa3\xe4\xbdI\x8c\xed?'
p851
tp852
Rp853
aaa(lp854
g844
a(lp855
(F-0.4674811363220215
F-0.7673740386962891
F-3.141592502593994
F-1.5194079875946045
F-0.15684953331947327
F0.4398689270019531
F1.6206507682800293
tp856
a(F0.023362486877314403
F-0.931726511484844
F-3.062331728423785
F-1.782261057541781
F-0.022452124758298275
F0.6013706684980958
F1.5381667728197588
tp857
a(F0.6057329983548233
F-1.1187911462099216
F3.141592653589793
F-2.217562362233813
F-0.25205191236064894
F0.6650924443225211
F1.6774439347839178
tp858
ag6
(g10
S'\x00\x00\x00\x00\x00\x00\x00\x00'
p859
tp860
Rp861
ag6
(g10
S'\x0f\xc5?\xc6\x8ct\xb4?'
p862
tp863
Rp864
aaa(lp865
g855
a(lp866
(F-0.4674811363220215
F-0.7673740386962891
F-3.141592502593994
F-1.5194079875946045
F-0.15684953331947327
F0.4398689270019531
F1.6206507682800293
tp867
a(F-0.24292151546154234
F-1.2217304763960306
F-2.565675269461092
F-1.2407701064103562
F-0.7652422751963112
F-0.3356357969178787
F2.1695612429983147
tp868
a(F1.3653523407243937
F-1.2217304763960306
F2.1624176847567185
F-1.6157072155325676
F1.3279900883039675
F-0.4570207140050801
F0.37299603779970053
tp869
ag6
(g10
S'\x8a\x80\xf7\x92/\x12\xe8?'
p870
tp871
Rp872
ag6
(g10
S'\x0fIHb\x13=\xb4?'
p873
tp874
Rp875
aaa(lp876
g866
a(lp877
(F-0.4674811363220215
F-0.7673740386962891
F-3.141592502593994
F-1.5194079875946045
F-0.15684953331947327
F0.4398689270019531
F1.6206507682800293
tp878
a(F0.023362486877314403
F-0.931726511484844
F-3.062331728423785
F-1.782261057541781
F-0.022452124758298275
F0.6013706684980958
F1.5381667728197588
tp879
a(F0.9103157230535996
F-1.2217304763960306
F2.728393675610812
F-1.424052482944176
F0.8834720699437626
F-0.38015908750682653
F0.7211368738510283
tp880
ag6
(g10
S'\xc0\x92\x1cl\x02$\xea?'
p881
tp882
Rp883
ag6
(g10
S'\xfeQ\xc3\xec\xabZ\xc3?'
p884
tp885
Rp886
aaa(lp887
g877
a(lp888
(F-0.4674811363220215
F-0.7673740386962891
F-3.141592502593994
F-1.5194079875946045
F-0.15684953331947327
F0.4398689270019531
F1.6206507682800293
tp889
a(F0.023362486877314403
F-0.931726511484844
F-3.062331728423785
F-1.782261057541781
F-0.022452124758298275
F0.6013706684980958
F1.5381667728197588
tp890
a(F1.4811856140761512
F-1.2217304763960306
F1.6500679227976751
F-1.5439101142766893
F1.3272271042485013
F-0.8749731601613316
F0.3859303974407907
tp891
ag6
(g10
S'\xc3:G-,\xfd\xef?'
p892
tp893
Rp894
ag6
(g10
S'\xf0C\xd8\x96%\xa1\xb5?'
p895
tp896
Rp897
aaa(lp898
g888
a(lp899
(F-0.4674811363220215
F-0.7673740386962891
F-3.141592502593994
F-1.5194079875946045
F-0.15684953331947327
F0.4398689270019531
F1.6206507682800293
tp900
a(F0.023362486877314403
F-0.931726511484844
F-3.062331728423785
F-1.782261057541781
F-0.022452124758298275
F0.6013706684980958
F1.5381667728197588
tp901
a(F0.7782846646398566
F-1.1788446892125222
F3.141592653589793
F-1.953076386864599
F0.0037321525011952458
F0.33076834962840884
F1.5486169259651095
tp902
ag6
(g10
S'\xed\xd6\nU\xae\xf5\xcd?'
p903
tp904
Rp905
ag6
(g10
S'\x0fIHb\x13=\xb4?'
p906
tp907
Rp908
aaa(lp909
g899
a(lp910
(F-0.4674811363220215
F-0.7673740386962891
F-3.141592502593994
F-1.5194079875946045
F-0.15684953331947327
F0.4398689270019531
F1.6206507682800293
tp911
a(F0.023362486877314403
F-0.931726511484844
F-3.062331728423785
F-1.782261057541781
F-0.022452124758298275
F0.6013706684980958
F1.5381667728197588
tp912
a(F-0.7386256683728062
F-1.041782752697809
F3.141592653589793
F-2.059556726582685
F-1.7709982247280232
F1.1687549027288204
F2.158002940952318
tp913
ag6
(g10
S'\x00\x00\x00\x00\x00\x00\x00\x00'
p914
tp915
Rp916
ag6
(g10
S'\x96ml\x13\x9d[\xee?'
p917
tp918
Rp919
aaa(lp920
g910
a(lp921
(F-0.4674811363220215
F-0.7673740386962891
F-3.141592502593994
F-1.5194079875946045
F-0.15684953331947327
F0.4398689270019531
F1.6206507682800293
tp922
a(F-0.24292151546154234
F-1.2217304763960306
F-2.565675269461092
F-1.2407701064103562
F-0.7652422751963112
F-0.3356357969178787
F2.1695612429983147
tp923
a(F0.6005875487005946
F-1.0625545248117167
F3.141592653589793
F-1.335007099910144
F0.7388567153485195
F-0.23754957357845144
F0.7505465039031861
tp924
ag6
(g10
S'\x1c8\x1a\x11\rW\xe4?'
p925
tp926
Rp927
ag6
(g10
S'\x95\xd1\x0e\x9f|\r\xd0?'
p928
tp929
Rp930
aaa(lp931
g921
a(lp932
(F-0.4674811363220215
F-0.7673740386962891
F-3.141592502593994
F-1.5194079875946045
F-0.15684953331947327
F0.4398689270019531
F1.6206507682800293
tp933
a(F-0.22721301554710166
F-1.2217304763960306
F-2.6189964515988287
F-1.3802893917264505
F-1.0734160289477983
F-0.21904301200698273
F2.5041453615365317
tp934
a(F1.4082052321685277
F-1.2217304763960306
F2.036903510354779
F-1.4102685844402225
F1.0517874715795839
F-0.6188754376579236
F0.7071477140249556
tp935
ag6
(g10
S'\x00\x00\x00\x00\x00\x00\xf0?'
p936
tp937
Rp938
ag6
(g10
S'\x0fIHb\x13=\xb4?'
p939
tp940
Rp941
aaa(lp942
g932
a(lp943
(F-0.4674811363220215
F-0.7673740386962891
F-3.141592502593994
F-1.5194079875946045
F-0.15684953331947327
F0.4398689270019531
F1.6206507682800293
tp944
a(F-0.24292151546154234
F-1.2217304763960306
F-2.565675269461092
F-1.2407701064103562
F-0.7652422751963112
F-0.3356357969178787
F2.1695612429983147
tp945
a(F0.031082568302720708
F-1.0452278094609064
F1.6371816731019446
F-1.4394713031601452
F-1.528270817338377
F2.1646412024740895
F2.907299160894862
tp946
ag6
(g10
S'\x00\x00\x00\x00\x00\x00\xf0?'
p947
tp948
Rp949
ag6
(g10
S'\x15\x0ej\x19\xd8 \xee?'
p950
tp951
Rp952
aaa(lp953
g943
a(lp954
(F-0.4674811363220215
F-0.7673740386962891
F-3.141592502593994
F-1.5194079875946045
F-0.15684953331947327
F0.4398689270019531
F1.6206507682800293
tp955
a(F0.02635881667654208
F-1.1100631954911546
F-3.0684342646860756
F-1.7089537099149714
F-0.0337377132472429
F0.35061427704797793
F1.5668276400762562
tp956
a(F0.13363173563633607
F-1.144822056661762
F2.236922281735816
F-2.251474735072685
F-1.5857578425026215
F1.4424050425995967
F2.195137592749847
tp957
ag6
(g10
S'\x13t3\xba\x1e\xfe\xc1?'
p958
tp959
Rp960
ag6
(g10
S'f\xd8\xb8\x1f\xcaC\xe6?'
p961
tp962
Rp963
aaa(lp964
g954
a(lp965
(F-0.4674811363220215
F-0.7673740386962891
F-3.141592502593994
F-1.5194079875946045
F-0.15684953331947327
F0.4398689270019531
F1.6206507682800293
tp966
a(F0.02937836275004289
F-1.163641513169023
F-3.0739358742861485
F-1.6604500342098254
F-0.05426708513567827
F0.24899216666587956
F1.593202298919503
tp967
a(F1.2218244446768654
F-1.2217304763960306
F2.0445357336539325
F-1.4078634174231242
F1.200676943347603
F-0.7494596582551182
F0.5137196194314165
tp968
ag6
(g10
S'\x00\x00\x00\x00\x00\x00\xf0?'
p969
tp970
Rp971
ag6
(g10
S'e\xcf\x82\x03\x05\xcb\xb7?'
p972
tp973
Rp974
aaa(lp975
g965
a(lp976
(F-0.4674811363220215
F-0.7673740386962891
F-3.141592502593994
F-1.5194079875946045
F-0.15684953331947327
F0.4398689270019531
F1.6206507682800293
tp977
a(F0.027672328029861252
F-1.134822144659962
F-3.07084704176653
F-1.688955273349351
F-0.04091942099929955
F0.30604964135399243
F1.5767079018162966
tp978
a(F0.7782795233831907
F-1.0114097520941925
F3.141592653589793
F-1.9972287494840864
F0.0023583412126293637
F0.5423547617383612
F1.5501058790399262
tp979
ag6
(g10
S'\x00\x00\x00\x00\x00\x00\x00\x00'
p980
tp981
Rp982
ag6
(g10
S'\x0fIHb\x13=\xb4?'
p983
tp984
Rp985
aaa(lp986
g976
a(lp987
(F-0.4674811363220215
F-0.7673740386962891
F-3.141592502593994
F-1.5194079875946045
F-0.15684953331947327
F0.4398689270019531
F1.6206507682800293
tp988
a(F0.023362486877314403
F-0.931726511484844
F-3.062331728423785
F-1.782261057541781
F-0.022452124758298275
F0.6013706684980958
F1.5381667728197588
tp989
a(F0.7782983083987948
F-1.048551737300696
F3.141592653589793
F-1.9919496330252493
F0.002510931472101287
F0.49993374170159344
F1.549936936784844
tp990
ag6
(g10
S'w\xf75NF\xbf\xa8?'
p991
tp992
Rp993
ag6
(g10
S'\x0fIHb\x13=\xb4?'
p994
tp995
Rp996
aaa(lp997
g987
a(lp998
(F-0.4674811363220215
F-0.7673740386962891
F-3.141592502593994
F-1.5194079875946045
F-0.15684953331947327
F0.4398689270019531
F1.6206507682800293
tp999
a(F0.026902941975197388
F-1.1205805560098017
F-3.069436274690013
F-1.70089540574214
F-0.03645354320457961
F0.33211778640277484
F1.5706911492153424
tp1000
a(F-0.38294769553063385
F-0.897016922638174
F2.859704772024037
F-1.321207333480991
F-1.7586958561822017
F1.3066371559952326
F2.800702690335984
tp1001
ag6
(g10
S'|\xef\xaa?\x10\xa0\xd9?'
p1002
tp1003
Rp1004
ag6
(g10
S'\x00\x00\x00\x00\x00\x00\xf0?'
p1005
tp1006
Rp1007
aaa(lp1008
g998
a(lp1009
(F-0.4674811363220215
F-0.7673740386962891
F-3.141592502593994
F-1.5194079875946045
F-0.15684953331947327
F0.4398689270019531
F1.6206507682800293
tp1010
a(F0.023362486877314403
F-0.931726511484844
F-3.062331728423785
F-1.782261057541781
F-0.022452124758298275
F0.6013706684980958
F1.5381667728197588
tp1011
a(F0.7782873996452808
F-1.1768835232805723
F3.141592653589793
F-1.9539481798468596
F0.0036958518275101975
F0.33360128160548674
F1.5486554241331965
tp1012
ag6
(g10
S'\xe1\xb8\xeb\x1d\xc8\x91\xcd?'
p1013
tp1014
Rp1015
ag6
(g10
S'\x0fIHb\x13=\xb4?'
p1016
tp1017
Rp1018
aaa(lp1019
g1009
a(lp1020
(F-0.4674811363220215
F-0.7673740386962891
F-3.141592502593994
F-1.5194079875946045
F-0.15684953331947327
F0.4398689270019531
F1.6206507682800293
tp1021
a(F0.023362486877314403
F-0.931726511484844
F-3.062331728423785
F-1.782261057541781
F-0.022452124758298275
F0.6013706684980958
F1.5381667728197588
tp1022
a(F-0.7386256683728062
F-1.041782752697809
F3.141592653589793
F-2.059556726582685
F-1.7709982247280232
F1.1687549027288204
F2.158002940952318
tp1023
ag6
(g10
S'\x00\x00\x00\x00\x00\x00\x00\x00'
p1024
tp1025
Rp1026
ag6
(g10
S'\x96ml\x13\x9d[\xee?'
p1027
tp1028
Rp1029
aaa(lp1030
g1020
a(lp1031
(F-0.4674811363220215
F-0.7673740386962891
F-3.141592502593994
F-1.5194079875946045
F-0.15684953331947327
F0.4398689270019531
F1.6206507682800293
tp1032
a(F0.028272243162456294
F-1.2188959771347325
F-3.072385183029211
F-1.5806140835968292
F-0.10892670336152019
F0.11436784854713054
F1.6521043588214206
tp1033
a(F0.6723244834832465
F-1.0842296381342995
F3.141592653589793
F-2.146651530209167
F-0.16241063289113905
F0.6230873037577972
F1.6388247744254334
tp1034
ag6
(g10
S'\x00\x00\x00\x00\x00\x00\x00\x00'
p1035
tp1036
Rp1037
ag6
(g10
S'h\x84\x13\xefZj\x98?'
p1038
tp1039
Rp1040
aaa(lp1041
g1031
a(lp1042
(F-0.4674811363220215
F-0.7673740386962891
F-3.141592502593994
F-1.5194079875946045
F-0.15684953331947327
F0.4398689270019531
F1.6206507682800293
tp1043
a(F0.029545708446652857
F-1.210031230345048
F-3.0745139443881424
F-1.5966466879912309
F-0.09628983949967383
F0.13924280271260817
F1.6392362849630995
tp1044
a(F1.4082052321685277
F-1.2217304763960306
F2.036903510354779
F-1.4102685844402225
F1.0517874715795839
F-0.6188754376579236
F0.7071477140249556
tp1045
ag6
(g10
S'\x00\x00\x00\x00\x00\x00\xf0?'
p1046
tp1047
Rp1048
ag6
(g10
S'\x0fIHb\x13=\xb4?'
p1049
tp1050
Rp1051
aaa(lp1052
g1042
a(lp1053
(F-0.4674811363220215
F-0.7673740386962891
F-3.141592502593994
F-1.5194079875946045
F-0.15684953331947327
F0.4398689270019531
F1.6206507682800293
tp1054
a(F-0.24292151546154234
F-1.2217304763960306
F-2.565675269461092
F-1.2407701064103562
F-0.7652422751963112
F-0.3356357969178787
F2.1695612429983147
tp1055
a(F-0.7386232301808956
F-1.0881267183382675
F3.141592653589793
F-2.052850858242388
F-1.7927174887275583
F1.1798754303161445
F2.214237939415362
tp1056
ag6
(g10
S'o\x86>\xbe\x91m\xad?'
p1057
tp1058
Rp1059
ag6
(g10
S'\x96ml\x13\x9d[\xee?'
p1060
tp1061
Rp1062
aaa(lp1063
g1053
a(lp1064
(F-0.4674811363220215
F-0.7673740386962891
F-3.141592502593994
F-1.5194079875946045
F-0.15684953331947327
F0.4398689270019531
F1.6206507682800293
tp1065
a(F0.02305627956178535
F-0.9988578542278934
F-3.062078482839995
F-1.7656763837600804
F-0.022028475843686758
F0.5178958495981683
F1.5436185503215023
tp1066
a(F0.7782795233831907
F-1.0114097520941925
F3.141592653589793
F-1.9972287494840864
F0.0023583412126293637
F0.5423547617383612
F1.5501058790399262
tp1067
ag6
(g10
S'\x00\x00\x00\x00\x00\x00\x00\x00'
p1068
tp1069
Rp1070
ag6
(g10
S'\x0fIHb\x13=\xb4?'
p1071
tp1072
Rp1073
aaa(lp1074
g1064
a(lp1075
(F-0.4674811363220215
F-0.7673740386962891
F-3.141592502593994
F-1.5194079875946045
F-0.15684953331947327
F0.4398689270019531
F1.6206507682800293
tp1076
a(F-0.21379389218483882
F-1.2217304763960306
F-2.6472249595866946
F-1.412628492913968
F-1.1871287683896992
F-0.190963439667649
F2.627070723217367
tp1077
a(F0.7782795233831907
F-1.0114097520941925
F3.141592653589793
F-1.9972287494840864
F0.0023583412126293637
F0.5423547617383612
F1.5501058790399262
tp1078
ag6
(g10
S'\x00\x00\x00\x00\x00\x00\x00\x00'
p1079
tp1080
Rp1081
ag6
(g10
S'\x0fIHb\x13=\xb4?'
p1082
tp1083
Rp1084
aaa(lp1085
g1075
a(lp1086
(F-0.4674811363220215
F-0.7673740386962891
F-3.141592502593994
F-1.5194079875946045
F-0.15684953331947327
F0.4398689270019531
F1.6206507682800293
tp1087
a(F0.023362486877314403
F-0.931726511484844
F-3.062331728423785
F-1.782261057541781
F-0.022452124758298275
F0.6013706684980958
F1.5381667728197588
tp1088
a(F0.1718565008557278
F-1.0807163508217106
F3.141592653589793
F-1.8680801311631388
F-1.1605051511834608
F0.5947934160280077
F2.350287943874833
tp1089
ag6
(g10
S'\xd9\x82o\x8bJd\xc6?'
p1090
tp1091
Rp1092
ag6
(g10
S'TQ\x0e\x9c\xca\xef\xd9?'
p1093
tp1094
Rp1095
aaa(lp1096
g1086
a(lp1097
(F-0.4674811363220215
F-0.7673740386962891
F-3.141592502593994
F-1.5194079875946045
F-0.15684953331947327
F0.4398689270019531
F1.6206507682800293
tp1098
a(F0.023362486877314403
F-0.931726511484844
F-3.062331728423785
F-1.782261057541781
F-0.022452124758298275
F0.6013706684980958
F1.5381667728197588
tp1099
a(F-0.020341575402204506
F-1.1300456381577269
F3.141592653589793
F-2.2406534468028925
F-1.045252568240387
F0.8437092959245026
F1.9909243802778542
tp1100
ag6
(g10
S'\x00\x00\x00\x00\x00\x00\x00\x00'
p1101
tp1102
Rp1103
ag6
(g10
S'\\\xbf\x04\x14h\xbd\xde?'
p1104
tp1105
Rp1106
aaa(lp1107
g1097
a(lp1108
(F-0.4674811363220215
F-0.7673740386962891
F-3.141592502593994
F-1.5194079875946045
F-0.15684953331947327
F0.4398689270019531
F1.6206507682800293
tp1109
a(F0.023362486877314403
F-0.931726511484844
F-3.062331728423785
F-1.782261057541781
F-0.022452124758298275
F0.6013706684980958
F1.5381667728197588
tp1110
a(F0.6504086330947012
F-0.9866466027281718
F2.326870853624642
F-2.251474735072685
F-1.0285075733604125
F1.1870488842615448
F2.217950509658937
tp1111
ag6
(g10
S'\x00\x00\x00\x00\x00\x00\x00\x00'
p1112
tp1113
Rp1114
ag6
(g10
S'0;Q\x8a\xac$\xd7?'
p1115
tp1116
Rp1117
aaa(lp1118
g1108
a(lp1119
(F-0.4674811363220215
F-0.7673740386962891
F-3.141592502593994
F-1.5194079875946045
F-0.15684953331947327
F0.4398689270019531
F1.6206507682800293
tp1120
a(F-0.24292151546154234
F-1.2217304763960306
F-2.565675269461092
F-1.2407701064103562
F-0.7652422751963112
F-0.3356357969178787
F2.1695612429983147
tp1121
a(F-0.6164591371731437
F-1.04142463239682
F3.141592653589793
F-2.058821872962556
F-1.6716453835317773
F1.105373555163652
F2.1690101801616977
tp1122
ag6
(g10
S'\x00\x00\x00\x00\x00\x00\x00\x00'
p1123
tp1124
Rp1125
ag6
(g10
S'7\xf4\n\xc4\xdc0\xec?'
p1126
tp1127
Rp1128
aaa(lp1129
g1119
a(lp1130
(F-0.4674811363220215
F-0.7673740386962891
F-3.141592502593994
F-1.5194079875946045
F-0.15684953331947327
F0.4398689270019531
F1.6206507682800293
tp1131
a(F-0.24292151546154234
F-1.2217304763960306
F-2.565675269461092
F-1.2407701064103562
F-0.7652422751963112
F-0.3356357969178787
F2.1695612429983147
tp1132
a(F-0.6566309960556311
F-0.9589338103153252
F3.141592653589793
F-1.8895231928718588
F-1.7447920643919776
F1.139623893212219
F2.2609872916880325
tp1133
ag6
(g10
S'\x00\x00\x00\x00\x00\x00\x00\x00'
p1134
tp1135
Rp1136
ag6
(g10
S'\x8d\xc1\xda\xbfF\x85\xee?'
p1137
tp1138
Rp1139
aaa(lp1140
g1130
a(lp1141
(F-0.4674811363220215
F-0.7673740386962891
F-3.141592502593994
F-1.5194079875946045
F-0.15684953331947327
F0.4398689270019531
F1.6206507682800293
tp1142
a(F0.023362486877314403
F-0.931726511484844
F-3.062331728423785
F-1.782261057541781
F-0.022452124758298275
F0.6013706684980958
F1.5381667728197588
tp1143
a(F0.016604178155127814
F-1.0343670482093623
F1.6359412586428128
F-1.4316332893271817
F-1.5158752246488625
F2.1768551671866607
F2.907803410089788
tp1144
ag6
(g10
S'\x00\x00\x00\x00\x00\x00\xf0?'
p1145
tp1146
Rp1147
ag6
(g10
S'\x96ml\x13\x9d[\xee?'
p1148
tp1149
Rp1150
aaa(lp1151
g1141
a(lp1152
(F-0.4674811363220215
F-0.7673740386962891
F-3.141592502593994
F-1.5194079875946045
F-0.15684953331947327
F0.4398689270019531
F1.6206507682800293
tp1153
a(F-0.2298920382418194
F-1.2217304763960306
F-2.61301067813237
F-1.3721610256307701
F-1.0487481253722422
F-0.22606997089638295
F2.4773688184963794
tp1154
a(F-0.9846300826136458
F-0.6276324539891089
F-1.8561006847083001
F-1.133790222777017
F-3.12413936106985
F0.8384915095717689
F-2.648910451394204
tp1155
ag6
(g10
S'MfH@\xbdB\xe4?'
p1156
tp1157
Rp1158
ag6
(g10
S'\x00\x00\x00\x00\x00\x00\xf0?'
p1159
tp1160
Rp1161
aaa(lp1162
g1152
a(lp1163
(F-0.4674811363220215
F-0.7673740386962891
F-3.141592502593994
F-1.5194079875946045
F-0.15684953331947327
F0.4398689270019531
F1.6206507682800293
tp1164
a(F-0.24292151546154234
F-1.2217304763960306
F-2.565675269461092
F-1.2407701064103562
F-0.7652422751963112
F-0.3356357969178787
F2.1695612429983147
tp1165
a(F-0.7386234720915881
F-1.168512426503918
F3.141592653589793
F-2.0328319489709417
F-1.831565921033821
F1.2038989191614244
F2.3191794137828214
tp1166
ag6
(g10
S'\x11\x05\x8aC\xd9\xec\xc4?'
p1167
tp1168
Rp1169
ag6
(g10
S'\x96ml\x13\x9d[\xee?'
p1170
tp1171
Rp1172
aaa(lp1173
g1163
a(lp1174
(F-0.4674811363220215
F-0.7673740386962891
F-3.141592502593994
F-1.5194079875946045
F-0.15684953331947327
F0.4398689270019531
F1.6206507682800293
tp1175
a(F-0.20134610012532086
F-1.2217304763960306
F-2.671875037524794
F-1.4353342108779692
F-1.286951219856909
F-0.1712658199965655
F2.7342641016154365
tp1176
a(F0.5839512941839069
F-0.8929128226756577
F3.141592653589793
F-1.4365813428957037
F-1.0855442018224137
F0.19711899579058736
F2.5453142894397955
tp1177
ag6
(g10
S'\xe5\xf2]\xca\xee\x8b\xd0?'
p1178
tp1179
Rp1180
ag6
(g10
S'\x8c\xd1\xb7\x164\xcb\xd1?'
p1181
tp1182
Rp1183
aaa(lp1184
g1174
a(lp1185
(F-0.4674811363220215
F-0.7673740386962891
F-3.141592502593994
F-1.5194079875946045
F-0.15684953331947327
F0.4398689270019531
F1.6206507682800293
tp1186
a(F-0.24292151546154234
F-1.2217304763960306
F-2.565675269461092
F-1.2407701064103562
F-0.7652422751963112
F-0.3356357969178787
F2.1695612429983147
tp1187
a(F0.6888746569435396
F-1.0744521474925173
F3.141592653589793
F-2.12659028552863
F-0.1388193500483692
F0.6116988069916806
F1.6275817123368472
tp1188
ag6
(g10
S'\x00\x00\x00\x00\x00\x00\x00\x00'
p1189
tp1190
Rp1191
ag6
(g10
S'\x9b\xf7u/Tf\x82?'
p1192
tp1193
Rp1194
aaa(lp1195
g1185
a(lp1196
(F-0.4674811363220215
F-0.7673740386962891
F-3.141592502593994
F-1.5194079875946045
F-0.15684953331947327
F0.4398689270019531
F1.6206507682800293
tp1197
a(F0.02927592159810935
F-1.1618130153036577
F-3.0737503111376836
F-1.662457858159096
F-0.053207879897918614
F0.2528101725188776
F1.591947581431135
tp1198
a(F0.40309291767599204
F-0.8093128925177852
F3.141592653589793
F-1.5822146364742513
F-0.8671655223352692
F0.4474319543560953
F2.200472433482156
tp1199
ag6
(g10
S'\x00\x00\x00\x00\x00\x00\x00\x00'
p1200
tp1201
Rp1202
ag6
(g10
S'\xb4\x90\xd6\xf9\x93\x07\xd5?'
p1203
tp1204
Rp1205
aaa(lp1206
g1196
a(lp1207
(F-0.4674811363220215
F-0.7673740386962891
F-3.141592502593994
F-1.5194079875946045
F-0.15684953331947327
F0.4398689270019531
F1.6206507682800293
tp1208
a(F0.023362486877314403
F-0.931726511484844
F-3.062331728423785
F-1.782261057541781
F-0.022452124758298275
F0.6013706684980958
F1.5381667728197588
tp1209
a(F-0.5218629722006386
F-0.7330534375396465
F3.141592653589793
F-1.4254160593863796
F-1.7697752589485105
F1.0920300595255594
F2.5404206583957936
tp1210
ag6
(g10
S'\x00\x00\x00\x00\x00\x00\x00\x00'
p1211
tp1212
Rp1213
ag6
(g10
S'\x00\x00\x00\x00\x00\x00\xf0?'
p1214
tp1215
Rp1216
aaa(lp1217
g1207
a(lp1218
(F-0.4674811363220215
F-0.7673740386962891
F-3.141592502593994
F-1.5194079875946045
F-0.15684953331947327
F0.4398689270019531
F1.6206507682800293
tp1219
a(F0.023362486877314403
F-0.931726511484844
F-3.062331728423785
F-1.782261057541781
F-0.022452124758298275
F0.6013706684980958
F1.5381667728197588
tp1220
a(F-0.6311788147519776
F-0.9270240088895193
F3.141592653589793
F-1.824013064542488
F-1.7412979552212018
F1.1300494039328683
F2.3004446386788904
tp1221
ag6
(g10
S'\x00\x00\x00\x00\x00\x00\x00\x00'
p1222
tp1223
Rp1224
ag6
(g10
S'XX\x81\xa7\xe3\xa7\xee?'
p1225
tp1226
Rp1227
aaa(lp1228
g1218
a(lp1229
(F-0.4674811363220215
F-0.7673740386962891
F-3.141592502593994
F-1.5194079875946045
F-0.15684953331947327
F0.4398689270019531
F1.6206507682800293
tp1230
a(F0.029811642121702415
F-1.1720241529215676
F-3.074724183911842
F-1.6508439001285422
F-0.05957622332896723
F0.23108920699793808
F1.5993911703031705
tp1231
a(F0.6331976145356577
F-0.8472097500604757
F3.141592653589793
F-1.6600883923174359
F-0.35014211403954965
F0.38674821731969283
F1.8156454814266867
tp1232
ag6
(g10
S'\x00\x00\x00\x00\x00\x00\x00\x00'
p1233
tp1234
Rp1235
ag6
(g10
S'\xe5\x13\x0f\xe9Y\xdc\xc9?'
p1236
tp1237
Rp1238
aaa(lp1239
g1229
a(lp1240
(F-0.4674811363220215
F-0.7673740386962891
F-3.141592502593994
F-1.5194079875946045
F-0.15684953331947327
F0.4398689270019531
F1.6206507682800293
tp1241
a(F0.024075563179009583
F-1.0580368001286955
F-3.0641761927335702
F-1.7410841480642887
F-0.025146957294184306
F0.4344211234184034
F1.5525863569729672
tp1242
a(F0.5696512400519648
F-0.9247278412221794
F3.141592653589793
F-1.3126590581247093
F1.244881769469025
F-0.19752711251198174
F0.22267092716804787
tp1243
ag6
(g10
S'\xd4>\x1d5\x88\x8c\xdb?'
p1244
tp1245
Rp1246
ag6
(g10
S'\x05\x02B\x9e\x93`\xd3?'
p1247
tp1248
Rp1249
aaa(lp1250
g1240
a(lp1251
(F-0.4674811363220215
F-0.7673740386962891
F-3.141592502593994
F-1.5194079875946045
F-0.15684953331947327
F0.4398689270019531
F1.6206507682800293
tp1252
a(F-0.24292151546154234
F-1.2217304763960306
F-2.565675269461092
F-1.2407701064103562
F-0.7652422751963112
F-0.3356357969178787
F2.1695612429983147
tp1253
a(F0.12371164093293062
F-0.8935498687581072
F3.141592653589793
F-1.7552757270666286
F-1.121086334400808
F0.6555471281303258
F2.258094695038593
tp1254
ag6
(g10
S'\x00\x00\x00\x00\x00\x00\x00\x00'
p1255
tp1256
Rp1257
ag6
(g10
S'\xe6%{o\\\x1e\xde?'
p1258
tp1259
Rp1260
aaa(lp1261
g1251
a(lp1262
(F-0.4674811363220215
F-0.7673740386962891
F-3.141592502593994
F-1.5194079875946045
F-0.15684953331947327
F0.4398689270019531
F1.6206507682800293
tp1263
a(F0.023362486877314403
F-0.931726511484844
F-3.062331728423785
F-1.782261057541781
F-0.022452124758298275
F0.6013706684980958
F1.5381667728197588
tp1264
a(F-0.7386256683728062
F-1.041782752697809
F3.141592653589793
F-2.059556726582685
F-1.7709982247280232
F1.1687549027288204
F2.158002940952318
tp1265
ag6
(g10
S'\x00\x00\x00\x00\x00\x00\x00\x00'
p1266
tp1267
Rp1268
ag6
(g10
S'\x96ml\x13\x9d[\xee?'
p1269
tp1270
Rp1271
aaa(lp1272
g1262
a(lp1273
(F-0.4674811363220215
F-0.7673740386962891
F-3.141592502593994
F-1.5194079875946045
F-0.15684953331947327
F0.4398689270019531
F1.6206507682800293
tp1274
a(F0.025821748044202262
F-1.0991833533861821
F-3.0674413001773146
F-1.7166780951069025
F-0.0313484557220217
F0.3691400642138129
F1.5632509731128197
tp1275
a(F0.46725321083217664
F-1.1776621895522017
F3.141592653589793
F-1.6656577605720906
F-1.4825537245563214
F0.2800173003981619
F2.8941214677686866
tp1276
ag6
(g10
S'\x97\x97\xfd(\xfb\xbd\xde?'
p1277
tp1278
Rp1279
ag6
(g10
S'\x9f\xfb$\x8d\xe2\x05\xcd?'
p1280
tp1281
Rp1282
aaa(lp1283
g1273
a(lp1284
(F-0.4674811363220215
F-0.7673740386962891
F-3.141592502593994
F-1.5194079875946045
F-0.15684953331947327
F0.4398689270019531
F1.6206507682800293
tp1285
a(F0.023362486877314403
F-0.931726511484844
F-3.062331728423785
F-1.782261057541781
F-0.022452124758298275
F0.6013706684980958
F1.5381667728197588
tp1286
a(F0.5568474338964201
F-0.7228294584610352
F3.141592653589793
F-1.3602484944851787
F-0.8316167740589897
F0.27009428949513387
F2.26901772775248
tp1287
ag6
(g10
S'\xa3\x90z1\x18#\xa3?'
p1288
tp1289
Rp1290
ag6
(g10
S'\xdbQ\x14\xd6\x87\xdc\xd4?'
p1291
tp1292
Rp1293
aaa(lp1294
g1284
a(lp1295
(F-0.4674811363220215
F-0.7673740386962891
F-3.141592502593994
F-1.5194079875946045
F-0.15684953331947327
F0.4398689270019531
F1.6206507682800293
tp1296
a(F0.023362486877314403
F-0.931726511484844
F-3.062331728423785
F-1.782261057541781
F-0.022452124758298275
F0.6013706684980958
F1.5381667728197588
tp1297
a(F-0.6072315523326007
F-0.8935241886664894
F3.141592653589793
F-1.755222991856688
F-1.7406914160243063
F1.1210290561745426
F2.3418346701276356
tp1298
ag6
(g10
S'\x00\x00\x00\x00\x00\x00\x00\x00'
p1299
tp1300
Rp1301
ag6
(g10
S'=\xcd\x17Q\xf0\xd4\xee?'
p1302
tp1303
Rp1304
aaa(lp1305
g1295
a(lp1306
(F-0.4674811363220215
F-0.7673740386962891
F-3.141592502593994
F-1.5194079875946045
F-0.15684953331947327
F0.4398689270019531
F1.6206507682800293
tp1307
a(F0.023182719229330805
F-0.9657573694821143
F-3.062142123961448
F-1.775171296583428
F-0.02204650999751628
F0.560369945959825
F1.5407275049237212
tp1308
a(F1.4082052321685277
F-1.2217304763960306
F2.036903510354779
F-1.4102685844402225
F1.0517874715795839
F-0.6188754376579236
F0.7071477140249556
tp1309
ag6
(g10
S'\x00\x00\x00\x00\x00\x00\xf0?'
p1310
tp1311
Rp1312
ag6
(g10
S'\x0fIHb\x13=\xb4?'
p1313
tp1314
Rp1315
aaa(lp1316
g1306
a(lp1317
(F-0.4674811363220215
F-0.7673740386962891
F-3.141592502593994
F-1.5194079875946045
F-0.15684953331947327
F0.4398689270019531
F1.6206507682800293
tp1318
a(F0.026898133235797175
F-1.120489343245948
F-3.0694274343816343
F-1.7009679437780878
F-0.03642806288756357
F0.33228083512249157
F1.5706557234833882
tp1319
a(F0.5568621644162409
F-0.9611094477584107
F3.141592653589793
F-1.02770680523056
F0.4902283947706752
F-0.4321199843422495
F1.00458048678888
tp1320
ag6
(g10
S'J\xeeTeYD\xe9?'
p1321
tp1322
Rp1323
ag6
(g10
S'\xdbQ\x14\xd6\x87\xdc\xd4?'
p1324
tp1325
Rp1326
aaa(lp1327
g1317
a(lp1328
(F-0.4674811363220215
F-0.7673740386962891
F-3.141592502593994
F-1.5194079875946045
F-0.15684953331947327
F0.4398689270019531
F1.6206507682800293
tp1329
a(F0.023362486877314403
F-0.931726511484844
F-3.062331728423785
F-1.782261057541781
F-0.022452124758298275
F0.6013706684980958
F1.5381667728197588
tp1330
a(F0.4862571626055189
F-1.2217304763960306
F2.6660996085693394
F-2.067053709077547
F-1.2063101749935734
F0.7991468401297854
F2.4254935583198445
tp1331
ag6
(g10
S'Mk\xd8\x04\xab(\xce?'
p1332
tp1333
Rp1334
ag6
(g10
S'\xce\x9eP\x9f\x80\xb5\xd6?'
p1335
tp1336
Rp1337
aaa(lp1338
g1328
a(lp1339
(F-0.4674811363220215
F-0.7673740386962891
F-3.141592502593994
F-1.5194079875946045
F-0.15684953331947327
F0.4398689270019531
F1.6206507682800293
tp1340
a(F-0.24292151546154234
F-1.2217304763960306
F-2.565675269461092
F-1.2407701064103562
F-0.7652422751963112
F-0.3356357969178787
F2.1695612429983147
tp1341
a(F0.10298060365376319
F-1.2217304763960306
F1.8385074801186365
F-1.6132130729636882
F-1.7575111643829389
F1.8989766661774612
F2.802975184396912
tp1342
ag6
(g10
S'+\xaet\xe0\xce\x95\xeb?'
p1343
tp1344
Rp1345
ag6
(g10
S'\xe0\xcb\xb1@}\x88\xec?'
p1346
tp1347
Rp1348
aaa(lp1349
g1339
a(lp1350
(F-0.4674811363220215
F-0.7673740386962891
F-3.141592502593994
F-1.5194079875946045
F-0.15684953331947327
F0.4398689270019531
F1.6206507682800293
tp1351
a(F-0.24292151546154234
F-1.2217304763960306
F-2.565675269461092
F-1.2407701064103562
F-0.7652422751963112
F-0.3356357969178787
F2.1695612429983147
tp1352
a(F0.3293203749320724
F-0.9966414555507515
F1.9935854194177274
F-2.251474735072685
F-1.494702939628922
F1.6072301738323522
F2.2039866289491736
tp1353
ag6
(g10
S'\xb7\x99\x82\x8a>\xec\xc0?'
p1354
tp1355
Rp1356
ag6
(g10
S'b-v}\xdc\xd2\xe4?'
p1357
tp1358
Rp1359
aaa(lp1360
g1350
a(lp1361
(F-0.4674811363220215
F-0.7673740386962891
F-3.141592502593994
F-1.5194079875946045
F-0.15684953331947327
F0.4398689270019531
F1.6206507682800293
tp1362
a(F-0.24348432774578357
F-1.2217304763960306
F-2.566139485873024
F-1.2480243120641894
F-0.7774412009291001
F-0.3298173317677344
F2.1826426822841896
tp1363
a(F0.5338361420446958
F-0.8338431460627923
F3.141592653589793
F-1.3667150718200964
F-1.2354270976352395
F0.2323235889165892
F2.672382409540282
tp1364
ag6
(g10
S't$\x04Y\xad\x99\xcc?'
p1365
tp1366
Rp1367
ag6
(g10
S'\xbb\xcf\xd0\xcf\xc1\x82\xd4?'
p1368
tp1369
Rp1370
aaa(lp1371
g1361
a(lp1372
(F-0.4674811363220215
F-0.7673740386962891
F-3.141592502593994
F-1.5194079875946045
F-0.15684953331947327
F0.4398689270019531
F1.6206507682800293
tp1373
a(F0.02299780220031333
F-1.0213403395768812
F-3.0621031494016027
F-1.757574350267891
F-0.022287471130653477
F0.48739634277278443
F1.5458637723680448
tp1374
a(F0.8908844806905337
F-1.1454449327026304
F1.9035168042602117
F-2.251474735072685
F-1.3021715560755214
F1.2231558145178014
F2.4456108513974355
tp1375
ag6
(g10
S'SP\x9dn\xcd\xdc\xce?'
p1376
tp1377
Rp1378
ag6
(g10
S'\xe2Z\xd76\xdd>\xd8?'
p1379
tp1380
Rp1381
aaa(lp1382
g1372
a(lp1383
(F-0.4674811363220215
F-0.7673740386962891
F-3.141592502593994
F-1.5194079875946045
F-0.15684953331947327
F0.4398689270019531
F1.6206507682800293
tp1384
a(F0.023362486877314403
F-0.931726511484844
F-3.062331728423785
F-1.782261057541781
F-0.022452124758298275
F0.6013706684980958
F1.5381667728197588
tp1385
a(F0.4589222401346612
F-0.7945336103330942
F3.141592653589793
F-1.551836914718518
F-0.7940445012276666
F0.40714198072073615
F2.162629341036756
tp1386
ag6
(g10
S'\x00\x00\x00\x00\x00\x00\x00\x00'
p1387
tp1388
Rp1389
ag6
(g10
S'\xc4/+\xe7R\xa4\xd3?'
p1390
tp1391
Rp1392
aaa(lp1393
g1383
a(lp1394
(F-0.4674811363220215
F-0.7673740386962891
F-3.141592502593994
F-1.5194079875946045
F-0.15684953331947327
F0.4398689270019531
F1.6206507682800293
tp1395
a(F-0.24292151546154234
F-1.2217304763960306
F-2.565675269461092
F-1.2407701064103562
F-0.7652422751963112
F-0.3356357969178787
F2.1695612429983147
tp1396
a(F-0.46679697408402
F-0.9665730754893433
F3.141592653589793
F-1.9052044939624193
F-1.5935726141322628
F1.0267113077191758
F2.2644781370076457
tp1397
ag6
(g10
S'\x00\x00\x00\x00\x00\x00\x00\x00'
p1398
tp1399
Rp1400
ag6
(g10
S'U\x83E\x85r\xb2\xea?'
p1401
tp1402
Rp1403
aaa(lp1404
g1394
a(lp1405
(F-0.4674811363220215
F-0.7673740386962891
F-3.141592502593994
F-1.5194079875946045
F-0.15684953331947327
F0.4398689270019531
F1.6206507682800293
tp1406
a(F0.027648537342268586
F-1.134412737100187
F-3.070803771174322
F-1.6893166456511823
F-0.040773929893697894
F0.30681697327909235
F1.5765173950220444
tp1407
a(F0.5018899495723181
F-0.7482822911586362
F3.141592653589793
F-1.456739301994803
F-0.7968243429123593
F0.3501654826831692
F2.196552400985208
tp1408
ag6
(g10
S'\x00\x00\x00\x00\x00\x00\x00\x00'
p1409
tp1410
Rp1411
ag6
(g10
S'\xdd\x10\xa7\xd0uC\xd4?'
p1412
tp1413
Rp1414
aaa(lp1415
g1405
a(lp1416
(F-0.4674811363220215
F-0.7673740386962891
F-3.141592502593994
F-1.5194079875946045
F-0.15684953331947327
F0.4398689270019531
F1.6206507682800293
tp1417
a(F-0.24292151546154234
F-1.2217304763960306
F-2.565675269461092
F-1.2407701064103562
F-0.7652422751963112
F-0.3356357969178787
F2.1695612429983147
tp1418
a(F-0.28030118120815783
F-0.8594630676984182
F3.141592653589793
F-1.6852616539366858
F-1.5260314565364927
F0.9067965267854086
F2.399402143214931
tp1419
ag6
(g10
S'\x00\x00\x00\x00\x00\x00\x00\x00'
p1420
tp1421
Rp1422
ag6
(g10
S'c\xa5\xd69F\xa5\xe8?'
p1423
tp1424
Rp1425
aaa(lp1426
g1416
a(lp1427
(F-0.4674811363220215
F-0.7673740386962891
F-3.141592502593994
F-1.5194079875946045
F-0.15684953331947327
F0.4398689270019531
F1.6206507682800293
tp1428
a(F0.023362486877314403
F-0.931726511484844
F-3.062331728423785
F-1.782261057541781
F-0.022452124758298275
F0.6013706684980958
F1.5381667728197588
tp1429
a(F0.412494209899259
F-1.1115104910696552
F1.9885858245301904
F-2.251474735072685
F-1.5223032027134815
F1.4943773329536498
F2.28147645422623
tp1430
ag6
(g10
S'\xa70\x86\xe3O \xc9?'
p1431
tp1432
Rp1433
ag6
(g10
S'\x95\x1c\xac\x96A\x97\xe3?'
p1434
tp1435
Rp1436
aaa(lp1437
g1427
a(lp1438
(F-0.4674811363220215
F-0.7673740386962891
F-3.141592502593994
F-1.5194079875946045
F-0.15684953331947327
F0.4398689270019531
F1.6206507682800293
tp1439
a(F0.023362486877314403
F-0.931726511484844
F-3.062331728423785
F-1.782261057541781
F-0.022452124758298275
F0.6013706684980958
F1.5381667728197588
tp1440
a(F0.26759660377566225
F-0.8633212172573062
F3.141592653589793
F-1.6931872802124837
F-0.9849854771263179
F0.5569004293514387
F2.2236952528789207
tp1441
ag6
(g10
S'\x00\x00\x00\x00\x00\x00\x00\x00'
p1442
tp1443
Rp1444
ag6
(g10
S'\\\xa4\x97z\xe6\xa6\xd8?'
p1445
tp1446
Rp1447
aaa(lp1448
g1438
a(lp1449
(F-0.4674811363220215
F-0.7673740386962891
F-3.141592502593994
F-1.5194079875946045
F-0.15684953331947327
F0.4398689270019531
F1.6206507682800293
tp1450
a(F0.023362486877314403
F-0.931726511484844
F-3.062331728423785
F-1.782261057541781
F-0.022452124758298275
F0.6013706684980958
F1.5381667728197588
tp1451
a(F-0.738622860297357
F-1.1000033255086203
F3.141592653589793
F-2.050600791819279
F-1.7983672257749093
F1.1830244150969733
F2.229123253484347
tp1452
ag6
(g10
S'\xfd0\x90\x85\xc5\x94\xb2?'
p1453
tp1454
Rp1455
ag6
(g10
S'\x96ml\x13\x9d[\xee?'
p1456
tp1457
Rp1458
aaa(lp1459
g1449
a(lp1460
(F-0.4674811363220215
F-0.7673740386962891
F-3.141592502593994
F-1.5194079875946045
F-0.15684953331947327
F0.4398689270019531
F1.6206507682800293
tp1461
a(F-0.24407479283971778
F-1.2217304763960306
F-2.5731128854372525
F-1.288568885159149
F-0.8508050282520122
F-0.29677122365362024
F2.2619335995538785
tp1462
a(F-0.5895478099769023
F-1.126223779897337
F3.141592653589793
F-2.2328120381457177
F-1.602751117269902
F1.0863296448636468
F2.0699202435934274
tp1463
ag6
(g10
S'\x00\x00\x00\x00\x00\x00\x00\x00'
p1464
tp1465
Rp1466
ag6
(g10
S'\xd4Kj~\xab*\xea?'
p1467
tp1468
Rp1469
aaa(lp1470
g1460
a(lp1471
(F-0.4674811363220215
F-0.7673740386962891
F-3.141592502593994
F-1.5194079875946045
F-0.15684953331947327
F0.4398689270019531
F1.6206507682800293
tp1472
a(F0.023362486877314403
F-0.931726511484844
F-3.062331728423785
F-1.782261057541781
F-0.022452124758298275
F0.6013706684980958
F1.5381667728197588
tp1473
a(F0.5568405464431577
F-0.7031467836767004
F3.141592653589793
F-1.3638858059542731
F-0.7728961585016155
F0.28630563954039273
F2.2079424369811362
tp1474
ag6
(g10
S'\x00\x00\x00\x00\x00\x00\x00\x00'
p1475
tp1476
Rp1477
ag6
(g10
S'\xdbQ\x14\xd6\x87\xdc\xd4?'
p1478
tp1479
Rp1480
aaa(lp1481
g1471
a(lp1482
(F-0.4674811363220215
F-0.7673740386962891
F-3.141592502593994
F-1.5194079875946045
F-0.15684953331947327
F0.4398689270019531
F1.6206507682800293
tp1483
a(F-0.23742992202094457
F-1.2217304763960306
F-2.594901291090117
F-1.3431306137798178
F-0.970118292604012
F-0.25097532387787425
F2.391829944900651
tp1484
a(F-0.5218629722006386
F-0.7330534375396465
F3.141592653589793
F-1.4254160593863796
F-1.7697752589485105
F1.0920300595255594
F2.5404206583957936
tp1485
ag6
(g10
S'\x00\x00\x00\x00\x00\x00\x00\x00'
p1486
tp1487
Rp1488
ag6
(g10
S'\x00\x00\x00\x00\x00\x00\xf0?'
p1489
tp1490
Rp1491
aaa(lp1492
g1482
a(lp1493
(F-0.4674811363220215
F-0.7673740386962891
F-3.141592502593994
F-1.5194079875946045
F-0.15684953331947327
F0.4398689270019531
F1.6206507682800293
tp1494
a(F0.023298210276687895
F-0.9428670709191653
F-3.0622560289844953
F-1.7802179088244279
F-0.022282166439462958
F0.588225669275763
F1.538964793197568
tp1495
a(F-0.0788101730097769
F-0.6797366582272556
F2.0263276757176376
F-1.1930864290344207
F-1.270972269407452
F1.7826941541551728
F2.921230385080051
tp1496
ag6
(g10
S'\x83\x87H\xfcti\xe1?'
p1497
tp1498
Rp1499
ag6
(g10
S'\x00\x00\x00\x00\x00\x00\xf0?'
p1500
tp1501
Rp1502
aaa(lp1503
g1493
a(lp1504
(F-0.4674811363220215
F-0.7673740386962891
F-3.141592502593994
F-1.5194079875946045
F-0.15684953331947327
F0.4398689270019531
F1.6206507682800293
tp1505
a(F0.023362486877314403
F-0.931726511484844
F-3.062331728423785
F-1.782261057541781
F-0.022452124758298275
F0.6013706684980958
F1.5381667728197588
tp1506
a(F-0.7386256683728062
F-1.041782752697809
F3.141592653589793
F-2.059556726582685
F-1.7709982247280232
F1.1687549027288204
F2.158002940952318
tp1507
ag6
(g10
S'\x00\x00\x00\x00\x00\x00\x00\x00'
p1508
tp1509
Rp1510
ag6
(g10
S'\x96ml\x13\x9d[\xee?'
p1511
tp1512
Rp1513
aaa(lp1514
g1504
a(lp1515
(F-0.4674811363220215
F-0.7673740386962891
F-3.141592502593994
F-1.5194079875946045
F-0.15684953331947327
F0.4398689270019531
F1.6206507682800293
tp1516
a(F0.023362486877314403
F-0.931726511484844
F-3.062331728423785
F-1.782261057541781
F-0.022452124758298275
F0.6013706684980958
F1.5381667728197588
tp1517
a(F0.41437524544594667
F-0.8034053316148155
F3.141592653589793
F-1.570072637237106
F-0.858134658356809
F0.4371961412930941
F2.199167991785144
tp1518
ag6
(g10
S'\x00\x00\x00\x00\x00\x00\x00\x00'
p1519
tp1520
Rp1521
ag6
(g10
S'\x8es\x0e[e\xd7\xd4?'
p1522
tp1523
Rp1524
aaa(lp1525
g1515
a(lp1526
(F-0.4674811363220215
F-0.7673740386962891
F-3.141592502593994
F-1.5194079875946045
F-0.15684953331947327
F0.4398689270019531
F1.6206507682800293
tp1527
a(F0.023362486877314403
F-0.931726511484844
F-3.062331728423785
F-1.782261057541781
F-0.022452124758298275
F0.6013706684980958
F1.5381667728197588
tp1528
a(F0.456534456457371
F-1.2217304763960306
F2.427166335855342
F-1.7745555258398977
F-1.5707590553100954
F0.9953216171659809
F2.842152940718046
tp1529
ag6
(g10
S'\x11\xdd\x8fv\xde\xda\xe0?'
p1530
tp1531
Rp1532
ag6
(g10
S'\xc5\x14\x93.\xae\xbd\xdf?'
p1533
tp1534
Rp1535
aaa(lp1536
g1526
a(lp1537
(F-0.4674811363220215
F-0.7673740386962891
F-3.141592502593994
F-1.5194079875946045
F-0.15684953331947327
F0.4398689270019531
F1.6206507682800293
tp1538
a(F0.02307413945381728
F-0.9932956537703104
F-3.062080780534668
F-1.767466132415597
F-0.022000965841260257
F0.5252270938550923
F1.5431008065439777
tp1539
a(F0.7782795233831907
F-1.0114097520941925
F3.141592653589793
F-1.9972287494840864
F0.0023583412126293637
F0.5423547617383612
F1.5501058790399262
tp1540
ag6
(g10
S'\x00\x00\x00\x00\x00\x00\x00\x00'
p1541
tp1542
Rp1543
ag6
(g10
S'\x0fIHb\x13=\xb4?'
p1544
tp1545
Rp1546
aaa(lp1547
g1537
a(lp1548
(F-0.4674811363220215
F-0.7673740386962891
F-3.141592502593994
F-1.5194079875946045
F-0.15684953331947327
F0.4398689270019531
F1.6206507682800293
tp1549
a(F0.023362486877314403
F-0.931726511484844
F-3.062331728423785
F-1.782261057541781
F-0.022452124758298275
F0.6013706684980958
F1.5381667728197588
tp1550
a(F-0.7386256683728062
F-1.041782752697809
F3.141592653589793
F-2.059556726582685
F-1.7709982247280232
F1.1687549027288204
F2.158002940952318
tp1551
ag6
(g10
S'\x00\x00\x00\x00\x00\x00\x00\x00'
p1552
tp1553
Rp1554
ag6
(g10
S'\x96ml\x13\x9d[\xee?'
p1555
tp1556
Rp1557
aaa(lp1558
g1548
a(lp1559
(F-0.4674811363220215
F-0.7673740386962891
F-3.141592502593994
F-1.5194079875946045
F-0.15684953331947327
F0.4398689270019531
F1.6206507682800293
tp1560
a(F0.023362486877314403
F-0.931726511484844
F-3.062331728423785
F-1.782261057541781
F-0.022452124758298275
F0.6013706684980958
F1.5381667728197588
tp1561
a(F0.7782795233831907
F-1.0114097520941925
F3.141592653589793
F-1.9972287494840864
F0.0023583412126293637
F0.5423547617383612
F1.5501058790399262
tp1562
ag6
(g10
S'\x00\x00\x00\x00\x00\x00\x00\x00'
p1563
tp1564
Rp1565
ag6
(g10
S'\x0fIHb\x13=\xb4?'
p1566
tp1567
Rp1568
aaa(lp1569
g1559
a(lp1570
(F-0.4674811363220215
F-0.7673740386962891
F-3.141592502593994
F-1.5194079875946045
F-0.15684953331947327
F0.4398689270019531
F1.6206507682800293
tp1571
a(F0.023362486877314403
F-0.931726511484844
F-3.062331728423785
F-1.782261057541781
F-0.022452124758298275
F0.6013706684980958
F1.5381667728197588
tp1572
a(F0.5568725489938281
F-0.953414438518474
F3.141592653589793
F-0.8183658073708441
F0.347817654424896
F-0.6168883963939663
F1.1683218392302466
tp1573
ag6
(g10
S'\x00\x00\x00\x00\x00\x00\xf0?'
p1574
tp1575
Rp1576
ag6
(g10
S'\xdbQ\x14\xd6\x87\xdc\xd4?'
p1577
tp1578
Rp1579
aaa(lp1580
g1570
a(lp1581
(F-0.4674811363220215
F-0.7673740386962891
F-3.141592502593994
F-1.5194079875946045
F-0.15684953331947327
F0.4398689270019531
F1.6206507682800293
tp1582
a(F0.023362486877314403
F-0.931726511484844
F-3.062331728423785
F-1.782261057541781
F-0.022452124758298275
F0.6013706684980958
F1.5381667728197588
tp1583
a(F-0.5218629722006386
F-0.7330534375396465
F3.141592653589793
F-1.4254160593863796
F-1.7697752589485105
F1.0920300595255594
F2.5404206583957936
tp1584
ag6
(g10
S'\x00\x00\x00\x00\x00\x00\x00\x00'
p1585
tp1586
Rp1587
ag6
(g10
S'\x00\x00\x00\x00\x00\x00\xf0?'
p1588
tp1589
Rp1590
aaa(lp1591
g1581
a(lp1592
(F-0.4674811363220215
F-0.7673740386962891
F-3.141592502593994
F-1.5194079875946045
F-0.15684953331947327
F0.4398689270019531
F1.6206507682800293
tp1593
a(F0.02672547821944801
F-1.1171958803671767
F-3.069109862191924
F-1.703555385689153
F-0.03553152947327846
F0.33813657593247765
F1.5693999602675979
tp1594
a(F0.37269057126382815
F-1.1481503749856552
F3.141592653589793
F-1.1192829930296968
F0.6652712027006554
F-0.6133682527035638
F0.7995962175816883
tp1595
ag6
(g10
S'\x00\x00\x00\x00\x00\x00\xf0?'
p1596
tp1597
Rp1598
ag6
(g10
S'\x83z\x11\x1f\n\xa4\xd5?'
p1599
tp1600
Rp1601
aaa(lp1602
g1592
a(lp1603
(F-0.4674811363220215
F-0.7673740386962891
F-3.141592502593994
F-1.5194079875946045
F-0.15684953331947327
F0.4398689270019531
F1.6206507682800293
tp1604
a(F0.028387548695260636
F-1.2182675210562024
F-3.0725786498910996
F-1.5817887927254628
F-0.1079713655436128
F0.11617110720528728
F1.6511412976961855
tp1605
a(F0.5039726318869058
F-1.2217304763960306
F1.5045633241924325
F-1.596456611880209
F-1.6903789943109733
F1.8797622066540647
F2.9684535629440525
tp1606
ag6
(g10
S'\x00\x00\x00\x00\x00\x00\xf0?'
p1607
tp1608
Rp1609
ag6
(g10
S'\xb2\x9e\xf8\xef\xf1\x88\xe7?'
p1610
tp1611
Rp1612
aaa(lp1613
g1603
a(lp1614
(F-0.4674811363220215
F-0.7673740386962891
F-3.141592502593994
F-1.5194079875946045
F-0.15684953331947327
F0.4398689270019531
F1.6206507682800293
tp1615
a(F-0.24292151546154234
F-1.2217304763960306
F-2.565675269461092
F-1.2407701064103562
F-0.7652422751963112
F-0.3356357969178787
F2.1695612429983147
tp1616
a(F-0.06908052828879332
F-1.1545525401313435
F3.141592653589793
F-1.7448616102869803
F-1.6050482914091613
F0.7432049258568081
F2.717649163223716
tp1617
ag6
(g10
S'ua6k"\n\xd8?'
p1618
tp1619
Rp1620
ag6
(g10
S'\xcb]\x91\x90\x02\xd3\xe2?'
p1621
tp1622
Rp1623
aaa(lp1624
g1614
a(lp1625
(F-0.4674811363220215
F-0.7673740386962891
F-3.141592502593994
F-1.5194079875946045
F-0.15684953331947327
F0.4398689270019531
F1.6206507682800293
tp1626
a(F0.023362486877314403
F-0.931726511484844
F-3.062331728423785
F-1.782261057541781
F-0.022452124758298275
F0.6013706684980958
F1.5381667728197588
tp1627
a(F0.6192286538433933
F-0.8251499133648403
F3.141592653589793
F-1.614761397906943
F-0.4045628701916498
F0.3686935085963947
F1.8633929654621995
tp1628
ag6
(g10
S'\x00\x00\x00\x00\x00\x00\x00\x00'
p1629
tp1630
Rp1631
ag6
(g10
S'\x84F\xb0\xad\xecp\xcc?'
p1632
tp1633
Rp1634
aaa(lp1635
g1625
a(lp1636
(F-0.4674811363220215
F-0.7673740386962891
F-3.141592502593994
F-1.5194079875946045
F-0.15684953331947327
F0.4398689270019531
F1.6206507682800293
tp1637
a(F0.023362486877314403
F-0.931726511484844
F-3.062331728423785
F-1.782261057541781
F-0.022452124758298275
F0.6013706684980958
F1.5381667728197588
tp1638
a(F0.21225139862585116
F-0.877858658318214
F3.141592653589793
F-1.7230485515349494
F-1.0364329822490732
F0.5964313567588803
F2.236003761490416
tp1639
ag6
(g10
S'\x00\x00\x00\x00\x00\x00\x00\x00'
p1640
tp1641
Rp1642
ag6
(g10
S'\xe2\x88\x84\x14\xc1\x9f\xda?'
p1643
tp1644
Rp1645
aaa(lp1646
g1636
a(lp1647
(F-0.4674811363220215
F-0.7673740386962891
F-3.141592502593994
F-1.5194079875946045
F-0.15684953331947327
F0.4398689270019531
F1.6206507682800293
tp1648
a(F0.023362486877314403
F-0.931726511484844
F-3.062331728423785
F-1.782261057541781
F-0.022452124758298275
F0.6013706684980958
F1.5381667728197588
tp1649
a(F0.772657633885991
F-1.2217304763960306
F1.3780498672048371
F-1.6419609326123412
F-1.6809290660774663
F1.7593094231419086
F3.0299799970569987
tp1650
ag6
(g10
S'\x00\x00\x00\x00\x00\x00\xf0?'
p1651
tp1652
Rp1653
ag6
(g10
S'0\xbf\xac\xc9[\xe7\xe3?'
p1654
tp1655
Rp1656
aaa(lp1657
g1647
a(lp1658
(F-0.4674811363220215
F-0.7673740386962891
F-3.141592502593994
F-1.5194079875946045
F-0.15684953331947327
F0.4398689270019531
F1.6206507682800293
tp1659
a(F0.023362486877314403
F-0.931726511484844
F-3.062331728423785
F-1.782261057541781
F-0.022452124758298275
F0.6013706684980958
F1.5381667728197588
tp1660
a(F1.4764204339933171
F-1.2217304763960306
F1.581108866529447
F-1.5686232749943867
F1.3611562290954355
F-0.9406313511370887
F0.33245179894100724
tp1661
ag6
(g10
S'\x00\x00\x00\x00\x00\x00\xf0?'
p1662
tp1663
Rp1664
ag6
(g10
S'\xd4\xbe[\x1f\x92\xcf\xbf?'
p1665
tp1666
Rp1667
aaa(lp1668
g1658
a(lp1669
(F-0.4674811363220215
F-0.7673740386962891
F-3.141592502593994
F-1.5194079875946045
F-0.15684953331947327
F0.4398689270019531
F1.6206507682800293
tp1670
a(F0.023362486877314403
F-0.931726511484844
F-3.062331728423785
F-1.782261057541781
F-0.022452124758298275
F0.6013706684980958
F1.5381667728197588
tp1671
a(F-0.16759544074925042
F-0.02982815241839153
F-2.3195783094748976
F1.1734311629067327
F-2.929374458262402
F2.1816615649929116
F-2.6010612906123978
tp1672
ag6
(g10
S'R\xd2gm\xab\xcc\xe3?'
p1673
tp1674
Rp1675
ag6
(g10
S'\x00\x00\x00\x00\x00\x00\xf0?'
p1676
tp1677
Rp1678
aaa(lp1679
g1669
a(lp1680
(F-0.4674811363220215
F-0.7673740386962891
F-3.141592502593994
F-1.5194079875946045
F-0.15684953331947327
F0.4398689270019531
F1.6206507682800293
tp1681
a(F0.029861407981277503
F-1.2065169171280627
F-3.0750276729228343
F-1.602596527024604
F-0.09176920681350287
F0.1486848539578943
F1.634535557287946
tp1682
a(F-0.534296174108116
F-0.7617707374847978
F3.141592653589793
F-1.4844781019926911
F-1.76151736798583
F1.0954407906712225
F2.50484653158232
tp1683
ag6
(g10
S'\x00\x00\x00\x00\x00\x00\x00\x00'
p1684
tp1685
Rp1686
ag6
(g10
S'0Bn\x96\x86\xc3\xef?'
p1687
tp1688
Rp1689
aaa(lp1690
g1680
a(lp1691
(F-0.4674811363220215
F-0.7673740386962891
F-3.141592502593994
F-1.5194079875946045
F-0.15684953331947327
F0.4398689270019531
F1.6206507682800293
tp1692
a(F0.023362486877314403
F-0.931726511484844
F-3.062331728423785
F-1.782261057541781
F-0.022452124758298275
F0.6013706684980958
F1.5381667728197588
tp1693
a(F1.3891365938070948
F-1.2217304763960306
F2.108711796337443
F-1.5510030448540788
F1.2187933869211978
F-0.5081243141959482
F0.5006645655286538
tp1694
ag6
(g10
S'\xcb\xca,\x1f\xa0\xae\xea?'
p1695
tp1696
Rp1697
ag6
(g10
S'\x0fIHb\x13=\xb4?'
p1698
tp1699
Rp1700
aaa(lp1701
g1691
a(lp1702
(F-0.4674811363220215
F-0.7673740386962891
F-3.141592502593994
F-1.5194079875946045
F-0.15684953331947327
F0.4398689270019531
F1.6206507682800293
tp1703
a(F0.023362486877314403
F-0.931726511484844
F-3.062331728423785
F-1.782261057541781
F-0.022452124758298275
F0.6013706684980958
F1.5381667728197588
tp1704
a(F0.5546739676795925
F-0.7051239714880393
F3.141592653589793
F-1.3679544200477625
F-0.773469389585812
F0.2890099403336677
F2.2071563614531917
tp1705
ag6
(g10
S'\x00\x00\x00\x00\x00\x00\x00\x00'
p1706
tp1707
Rp1708
ag6
(g10
S'\x13Qarg\xd2\xd4?'
p1709
tp1710
Rp1711
aaa(lp1712
g1702
a(lp1713
(F-0.4674811363220215
F-0.7673740386962891
F-3.141592502593994
F-1.5194079875946045
F-0.15684953331947327
F0.4398689270019531
F1.6206507682800293
tp1714
a(F0.023362486877314403
F-0.931726511484844
F-3.062331728423785
F-1.782261057541781
F-0.022452124758298275
F0.6013706684980958
F1.5381667728197588
tp1715
a(F0.6289847007749736
F-0.8407084282668384
F3.141592653589793
F-1.6467309131595083
F-0.3658983162101685
F0.3813483625264955
F1.8293484431281828
tp1716
ag6
(g10
S'\x00\x00\x00\x00\x00\x00\x00\x00'
p1717
tp1718
Rp1719
ag6
(g10
S'\x06\x1f\x06G\x16\xa0\xca?'
p1720
tp1721
Rp1722
aaa(lp1723
g1713
a(lp1724
(F-0.4674811363220215
F-0.7673740386962891
F-3.141592502593994
F-1.5194079875946045
F-0.15684953331947327
F0.4398689270019531
F1.6206507682800293
tp1725
a(F0.023362486877314403
F-0.931726511484844
F-3.062331728423785
F-1.782261057541781
F-0.022452124758298275
F0.6013706684980958
F1.5381667728197588
tp1726
a(F0.6175625558752668
F-1.0926191887039114
F3.141592653589793
F-1.4184364045453397
F0.8695770217468437
F-0.18874748367506006
F0.6219688990086666
tp1727
ag6
(g10
S'\x12\xc3\x02\xd9: \xe3?'
p1728
tp1729
Rp1730
ag6
(g10
S'\x07\\\x99\x93\xa9\xc2\xcc?'
p1731
tp1732
Rp1733
aaa(lp1734
g1724
a(lp1735
(F-0.4674811363220215
F-0.7673740386962891
F-3.141592502593994
F-1.5194079875946045
F-0.15684953331947327
F0.4398689270019531
F1.6206507682800293
tp1736
a(F0.023362486877314403
F-0.931726511484844
F-3.062331728423785
F-1.782261057541781
F-0.022452124758298275
F0.6013706684980958
F1.5381667728197588
tp1737
a(F0.016604178155127814
F-1.0343670482093623
F1.6359412586428128
F-1.4316332893271817
F-1.5158752246488625
F2.1768551671866607
F2.907803410089788
tp1738
ag6
(g10
S'\x00\x00\x00\x00\x00\x00\xf0?'
p1739
tp1740
Rp1741
ag6
(g10
S'\x96ml\x13\x9d[\xee?'
p1742
tp1743
Rp1744
aaa(lp1745
g1735
a(lp1746
(F-0.4674811363220215
F-0.7673740386962891
F-3.141592502593994
F-1.5194079875946045
F-0.15684953331947327
F0.4398689270019531
F1.6206507682800293
tp1747
a(F0.023362486877314403
F-0.931726511484844
F-3.062331728423785
F-1.782261057541781
F-0.022452124758298275
F0.6013706684980958
F1.5381667728197588
tp1748
a(F0.47325237797228653
F-1.2217304763960306
F1.5224382594725883
F-1.5899631443622257
F-1.6917309485296073
F1.8902085681486416
F2.9628977178227105
tp1749
ag6
(g10
S'\x00\x00\x00\x00\x00\x00\xf0?'
p1750
tp1751
Rp1752
ag6
(g10
S'\xc9N\x82\xc6\x82\xf0\xe7?'
p1753
tp1754
Rp1755
aaa(lp1756
g1746
a(lp1757
(F-0.4674811363220215
F-0.7673740386962891
F-3.141592502593994
F-1.5194079875946045
F-0.15684953331947327
F0.4398689270019531
F1.6206507682800293
tp1758
a(F0.023362486877314403
F-0.931726511484844
F-3.062331728423785
F-1.782261057541781
F-0.022452124758298275
F0.6013706684980958
F1.5381667728197588
tp1759
a(F0.6690623855565202
F-1.0886458096813576
F1.455523323531894
F-1.5662749143996113
F1.6088513246803364
F-1.7833369845419855
F-0.05676010563045322
tp1760
ag6
(g10
S'\x00\x00\x00\x00\x00\x00\xf0?'
p1761
tp1762
Rp1763
ag6
(g10
S'\x0e-\xa6\xa7\xca\x9e\xe3?'
p1764
tp1765
Rp1766
aaa(lp1767
g1757
a(lp1768
(F-0.4674811363220215
F-0.7673740386962891
F-3.141592502593994
F-1.5194079875946045
F-0.15684953331947327
F0.4398689270019531
F1.6206507682800293
tp1769
a(F0.023362486877314403
F-0.931726511484844
F-3.062331728423785
F-1.782261057541781
F-0.022452124758298275
F0.6013706684980958
F1.5381667728197588
tp1770
a(F-0.052662955529678014
F-0.899988157167711
F3.141592653589793
F-1.76849774982896
F-1.295341852043789
F0.7648532115662453
F2.31057522730777
tp1771
ag6
(g10
S'\x00\x00\x00\x00\x00\x00\x00\x00'
p1772
tp1773
Rp1774
ag6
(g10
S'y\xb1\x99\xef\xaf\xf1\xe2?'
p1775
tp1776
Rp1777
aaa(lp1778
g1768
a(lp1779
(F-0.4674811363220215
F-0.7673740386962891
F-3.141592502593994
F-1.5194079875946045
F-0.15684953331947327
F0.4398689270019531
F1.6206507682800293
tp1780
a(F0.023362486877314403
F-0.931726511484844
F-3.062331728423785
F-1.782261057541781
F-0.022452124758298275
F0.6013706684980958
F1.5381667728197588
tp1781
a(F0.719464499625931
F-0.9561650257608996
F3.141592653589793
F-1.8838394666220046
F-0.11132543513947593
F0.486125464472555
F1.6253823899658875
tp1782
ag6
(g10
S'\x00\x00\x00\x00\x00\x00\x00\x00'
p1783
tp1784
Rp1785
ag6
(g10
S'\xaf\x8c\xd9\x94\xa1\xad\xba?'
p1786
tp1787
Rp1788
aaa(lp1789
g1779
a(lp1790
(F-0.4674811363220215
F-0.7673740386962891
F-3.141592502593994
F-1.5194079875946045
F-0.15684953331947327
F0.4398689270019531
F1.6206507682800293
tp1791
a(F0.023362486877314403
F-0.931726511484844
F-3.062331728423785
F-1.782261057541781
F-0.022452124758298275
F0.6013706684980958
F1.5381667728197588
tp1792
a(F-0.0356401140002758
F-0.9007519647148398
F3.141592653589793
F-1.7700663026079
F-1.278285197344861
F0.7545257469041643
F2.3049800446219715
tp1793
ag6
(g10
S'\x00\x00\x00\x00\x00\x00\x00\x00'
p1794
tp1795
Rp1796
ag6
(g10
S"\xf4\x80'\xbe\xbe\x8c\xe2?"
p1797
tp1798
Rp1799
aaa(lp1800
g1790
a(lp1801
(F-0.4674811363220215
F-0.7673740386962891
F-3.141592502593994
F-1.5194079875946045
F-0.15684953331947327
F0.4398689270019531
F1.6206507682800293
tp1802
a(F-0.24292151546154234
F-1.2217304763960306
F-2.565675269461092
F-1.2407701064103562
F-0.7652422751963112
F-0.3356357969178787
F2.1695612429983147
tp1803
a(F-0.49381907222941424
F-0.7542167631460275
F3.141592653589793
F-1.468943996971232
F-1.7419703995874798
F1.0668982147271893
F2.519951519096856
tp1804
ag6
(g10
S'\x00\x00\x00\x00\x00\x00\x00\x00'
p1805
tp1806
Rp1807
ag6
(g10
S'1\xe7\x1e~u\x0b\xef?'
p1808
tp1809
Rp1810
aaa(lp1811
g1801
a(lp1812
(F-0.4674811363220215
F-0.7673740386962891
F-3.141592502593994
F-1.5194079875946045
F-0.15684953331947327
F0.4398689270019531
F1.6206507682800293
tp1813
a(F0.023362486877314403
F-0.931726511484844
F-3.062331728423785
F-1.782261057541781
F-0.022452124758298275
F0.6013706684980958
F1.5381667728197588
tp1814
a(F-0.7386256683728062
F-1.041782752697809
F3.141592653589793
F-2.059556726582685
F-1.7709982247280232
F1.1687549027288204
F2.158002940952318
tp1815
ag6
(g10
S'\x00\x00\x00\x00\x00\x00\x00\x00'
p1816
tp1817
Rp1818
ag6
(g10
S'\x96ml\x13\x9d[\xee?'
p1819
tp1820
Rp1821
aaa(lp1822
g1812
a(lp1823
(F-0.4674811363220215
F-0.7673740386962891
F-3.141592502593994
F-1.5194079875946045
F-0.15684953331947327
F0.4398689270019531
F1.6206507682800293
tp1824
a(F0.02904185945656266
F-1.214163768913555
F-3.073674357931189
F-1.5893125340925964
F-0.10196062795183172
F0.12779239158928873
F1.6450462258883112
tp1825
a(F0.6339593044752813
F-0.8483668201057659
F3.141592653589793
F-1.6624656007792789
F-0.34736738878590273
F0.3877171702238751
F1.8132465073250619
tp1826
ag6
(g10
S'\x00\x00\x00\x00\x00\x00\x00\x00'
p1827
tp1828
Rp1829
ag6
(g10
S'\x82)c\x0co\xb9\xc9?'
p1830
tp1831
Rp1832
aaa(lp1833
g1823
a(lp1834
(F-0.4674811363220215
F-0.7673740386962891
F-3.141592502593994
F-1.5194079875946045
F-0.15684953331947327
F0.4398689270019531
F1.6206507682800293
tp1835
a(F0.023362486877314403
F-0.931726511484844
F-3.062331728423785
F-1.782261057541781
F-0.022452124758298275
F0.6013706684980958
F1.5381667728197588
tp1836
a(F-0.64856977256815
F-1.1696605369818247
F3.141592653589793
F-1.7867555308538945
F-1.868590213379496
F1.2079730212063335
F2.5931273944089783
tp1837
ag6
(g10
S'K\xc6\xf1\xd5b\xfa\xd6?'
p1838
tp1839
Rp1840
ag6
(g10
S's\x08@\x96\xdc\x8e\xee?'
p1841
tp1842
Rp1843
aaa(lp1844
g1834
a(lp1845
(F-0.4674811363220215
F-0.7673740386962891
F-3.141592502593994
F-1.5194079875946045
F-0.15684953331947327
F0.4398689270019531
F1.6206507682800293
tp1846
a(F0.023362486877314403
F-0.931726511484844
F-3.062331728423785
F-1.782261057541781
F-0.022452124758298275
F0.6013706684980958
F1.5381667728197588
tp1847
a(F-0.48279295662818494
F-0.7619457405352908
F3.141592653589793
F-1.484837964057603
F-1.7309810081390389
F1.057368948329101
F2.5122969547293064
tp1848
ag6
(g10
S'\x00\x00\x00\x00\x00\x00\x00\x00'
p1849
tp1850
Rp1851
ag6
(g10
S'\x91\xad\xbb\xce\x93\xad\xee?'
p1852
tp1853
Rp1854
aaa(lp1855
g1845
a(lp1856
(F-0.4674811363220215
F-0.7673740386962891
F-3.141592502593994
F-1.5194079875946045
F-0.15684953331947327
F0.4398689270019531
F1.6206507682800293
tp1857
a(F0.023362486877314403
F-0.931726511484844
F-3.062331728423785
F-1.782261057541781
F-0.022452124758298275
F0.6013706684980958
F1.5381667728197588
tp1858
a(F0.7782795233831907
F-1.0114097520941925
F3.141592653589793
F-1.9972287494840864
F0.0023583412126293637
F0.5423547617383612
F1.5501058790399262
tp1859
ag6
(g10
S'\x00\x00\x00\x00\x00\x00\x00\x00'
p1860
tp1861
Rp1862
ag6
(g10
S'\x0fIHb\x13=\xb4?'
p1863
tp1864
Rp1865
aaa(lp1866
g1856
a(lp1867
(F-0.4674811363220215
F-0.7673740386962891
F-3.141592502593994
F-1.5194079875946045
F-0.15684953331947327
F0.4398689270019531
F1.6206507682800293
tp1868
a(F-0.24292151546154234
F-1.2217304763960306
F-2.565675269461092
F-1.2407701064103562
F-0.7652422751963112
F-0.3356357969178787
F2.1695612429983147
tp1869
a(F-0.17012155640655763
F-1.136565501172616
F3.115935791092357
F-1.6033483028154734
F-1.7636093095425132
F0.8696057046881078
F2.868939245299532
tp1870
ag6
(g10
S'\xa9\x9d\xafR\xa9\xcd\xde?'
p1871
tp1872
Rp1873
ag6
(g10
S"\xf0\xf9M>\xb1'\xe6?"
p1874
tp1875
Rp1876
aaa(lp1877
g1867
a(lp1878
(F-0.4674811363220215
F-0.7673740386962891
F-3.141592502593994
F-1.5194079875946045
F-0.15684953331947327
F0.4398689270019531
F1.6206507682800293
tp1879
a(F0.023362486877314403
F-0.931726511484844
F-3.062331728423785
F-1.782261057541781
F-0.022452124758298275
F0.6013706684980958
F1.5381667728197588
tp1880
a(F0.7782795233831907
F-1.0114097520941925
F3.141592653589793
F-1.9972287494840864
F0.0023583412126293637
F0.5423547617383612
F1.5501058790399262
tp1881
ag6
(g10
S'\x00\x00\x00\x00\x00\x00\x00\x00'
p1882
tp1883
Rp1884
ag6
(g10
S'\x0fIHb\x13=\xb4?'
p1885
tp1886
Rp1887
aaa(lp1888
g1878
a(lp1889
(F-0.4674811363220215
F-0.7673740386962891
F-3.141592502593994
F-1.5194079875946045
F-0.15684953331947327
F0.4398689270019531
F1.6206507682800293
tp1890
a(F0.023362486877314403
F-0.931726511484844
F-3.062331728423785
F-1.782261057541781
F-0.022452124758298275
F0.6013706684980958
F1.5381667728197588
tp1891
a(F0.32790611862671265
F-1.2217304763960306
F1.6602404913662225
F-1.6675769215589191
F-1.7330008764621991
F1.8709894713405189
F2.8307866986424632
tp1892
ag6
(g10
S'\xd4\x88\xe0\xfa\xe9\xe4\xeb?'
p1893
tp1894
Rp1895
ag6
(g10
S'q\x96\xb2>\xee\xb3\xe9?'
p1896
tp1897
Rp1898
aaa(lp1899
g1889
a(lp1900
(F-0.4674811363220215
F-0.7673740386962891
F-3.141592502593994
F-1.5194079875946045
F-0.15684953331947327
F0.4398689270019531
F1.6206507682800293
tp1901
a(F0.023362486877314403
F-0.931726511484844
F-3.062331728423785
F-1.782261057541781
F-0.022452124758298275
F0.6013706684980958
F1.5381667728197588
tp1902
a(F0.6504923945675837
F-1.185385518559576
F3.141592653589793
F-1.4688897371900995
F0.6148855504172892
F-0.19877722384766702
F0.8915320889547231
tp1903
ag6
(g10
S'\xd3\x9fqd\x98\xf7\xe5?'
p1904
tp1905
Rp1906
ag6
(g10
S'\x0cv/\xeey\xdc\xc6?'
p1907
tp1908
Rp1909
aaa(lp1910
g1900
a(lp1911
(F-0.4674811363220215
F-0.7673740386962891
F-3.141592502593994
F-1.5194079875946045
F-0.15684953331947327
F0.4398689270019531
F1.6206507682800293
tp1912
a(F0.023362486877314403
F-0.931726511484844
F-3.062331728423785
F-1.782261057541781
F-0.022452124758298275
F0.6013706684980958
F1.5381667728197588
tp1913
a(F0.16739346462003846
F-0.9462562594715602
F3.141592653589793
F-1.8634980762013817
F-1.006875315067779
F0.6584551480660933
F2.1567578702925028
tp1914
ag6
(g10
S'\x00\x00\x00\x00\x00\x00\x00\x00'
p1915
tp1916
Rp1917
ag6
(g10
S'\xa0\xde4Z\xb7\x92\xda?'
p1918
tp1919
Rp1920
aaa(lp1921
g1911
a(lp1922
(F-0.4674811363220215
F-0.7673740386962891
F-3.141592502593994
F-1.5194079875946045
F-0.15684953331947327
F0.4398689270019531
F1.6206507682800293
tp1923
a(F-0.24292151546154234
F-1.2217304763960306
F-2.565675269461092
F-1.2407701064103562
F-0.7652422751963112
F-0.3356357969178787
F2.1695612429983147
tp1924
a(F1.0198664535309274
F-0.8685793798024071
F2.117812877546104
F-2.251474735072685
F-0.8489959132867361
F1.1848788166055528
F2.3565448699789338
tp1925
ag6
(g10
S'\x00\x00\x00\x00\x00\x00\x00\x00'
p1926
tp1927
Rp1928
ag6
(g10
S'\xfd\x92\xb3;\xdc\xef\xca?'
p1929
tp1930
Rp1931
aaa(lp1932
g1922
a(lp1933
(F-0.4674811363220215
F-0.7673740386962891
F-3.141592502593994
F-1.5194079875946045
F-0.15684953331947327
F0.4398689270019531
F1.6206507682800293
tp1934
a(F0.023362486877314403
F-0.931726511484844
F-3.062331728423785
F-1.782261057541781
F-0.022452124758298275
F0.6013706684980958
F1.5381667728197588
tp1935
a(F0.7440407359490787
F-1.2217304763960306
F1.4351762014471803
F-1.751672328546475
F-1.694948123146654
F1.715699141252233
F2.9133116604680214
tp1936
ag6
(g10
S'\xb0\xf0\x9a9?\xd0\xeb?'
p1937
tp1938
Rp1939
ag6
(g10
S"\xe7\x0c=1\x97'\xe4?"
p1940
tp1941
Rp1942
aaa(lp1943
g1933
a(lp1944
(F-0.4674811363220215
F-0.7673740386962891
F-3.141592502593994
F-1.5194079875946045
F-0.15684953331947327
F0.4398689270019531
F1.6206507682800293
tp1945
a(F0.025850757603487907
F-1.0997864919827862
F-3.0674950486226633
F-1.716265266857642
F-0.031470920190366555
F0.3681283611765173
F1.56343922952774
tp1946
a(F0.7782795233831907
F-1.0114097520941925
F3.141592653589793
F-1.9972287494840864
F0.0023583412126293637
F0.5423547617383612
F1.5501058790399262
tp1947
ag6
(g10
S'\x00\x00\x00\x00\x00\x00\x00\x00'
p1948
tp1949
Rp1950
ag6
(g10
S'\x0fIHb\x13=\xb4?'
p1951
tp1952
Rp1953
aaa(lp1954
g1944
a(lp1955
(F-0.4674811363220215
F-0.7673740386962891
F-3.141592502593994
F-1.5194079875946045
F-0.15684953331947327
F0.4398689270019531
F1.6206507682800293
tp1956
a(F0.023362486877314403
F-0.931726511484844
F-3.062331728423785
F-1.782261057541781
F-0.022452124758298275
F0.6013706684980958
F1.5381667728197588
tp1957
a(F-0.007769277271974694
F-0.9788734323731137
F1.8250946142198257
F-1.4516127337205444
F-1.5146136415519007
F2.0054585850219544
F2.8487986539119645
tp1958
ag6
(g10
S'My\xc7`\xd6\x87\xea?'
p1959
tp1960
Rp1961
ag6
(g10
S'_\xed\x105\xa9}\xee?'
p1962
tp1963
Rp1964
aaa(lp1965
g1955
a(lp1966
(F-0.4674811363220215
F-0.7673740386962891
F-3.141592502593994
F-1.5194079875946045
F-0.15684953331947327
F0.4398689270019531
F1.6206507682800293
tp1967
a(F0.027890146122653996
F-1.1385318615722622
F-3.0712427537961253
F-1.68563011966568
F-0.04228635443839841
F0.29904645627588666
F1.578482979545701
tp1968
a(F0.5432575127623553
F-0.7152177020601291
F3.141592653589793
F-1.3887234464061284
F-0.7770226174154428
F0.30290285502860587
F2.2034769562904395
tp1969
ag6
(g10
S'\x00\x00\x00\x00\x00\x00\x00\x00'
p1970
tp1971
Rp1972
ag6
(g10
S'\n\xe1\xd0e\xeb\xa2\xd4?'
p1973
tp1974
Rp1975
aaa(lp1976
g1966
a(lp1977
(F-0.4674811363220215
F-0.7673740386962891
F-3.141592502593994
F-1.5194079875946045
F-0.15684953331947327
F0.4398689270019531
F1.6206507682800293
tp1978
a(F0.02326312583906765
F-0.949367108383059
F-3.0622179473538025
F-1.7789033256039695
F-0.022199027676249837
F0.58043387763367
F1.539447871917807
tp1979
a(F0.5568405464431577
F-0.7031467836767004
F3.141592653589793
F-1.3638858059542731
F-0.7728961585016155
F0.28630563954039273
F2.2079424369811362
tp1980
ag6
(g10
S'\x00\x00\x00\x00\x00\x00\x00\x00'
p1981
tp1982
Rp1983
ag6
(g10
S'\xdbQ\x14\xd6\x87\xdc\xd4?'
p1984
tp1985
Rp1986
aaa(lp1987
g1977
a(lp1988
(F-0.4674811363220215
F-0.7673740386962891
F-3.141592502593994
F-1.5194079875946045
F-0.15684953331947327
F0.4398689270019531
F1.6206507682800293
tp1989
a(F-0.24292151546154234
F-1.2217304763960306
F-2.565675269461092
F-1.2407701064103562
F-0.7652422751963112
F-0.3356357969178787
F2.1695612429983147
tp1990
a(F-0.432013466242553
F-1.072884757028105
F3.141592653589793
F-1.5191623430001389
F-1.8575261780165433
F1.0774037061957338
F2.831218996882304
tp1991
ag6
(g10
S'\xb0\xbc\\]Z\xe8\xdd?'
p1992
tp1993
Rp1994
ag6
(g10
S'\xbeb\xf7\xbdv@\xec?'
p1995
tp1996
Rp1997
aaa(lp1998
g1988
a(lp1999
(F-0.4674811363220215
F-0.7673740386962891
F-3.141592502593994
F-1.5194079875946045
F-0.15684953331947327
F0.4398689270019531
F1.6206507682800293
tp2000
a(F0.023362486877314403
F-0.931726511484844
F-3.062331728423785
F-1.782261057541781
F-0.022452124758298275
F0.6013706684980958
F1.5381667728197588
tp2001
a(F0.7782795233831907
F-1.0114097520941925
F3.141592653589793
F-1.9972287494840864
F0.0023583412126293637
F0.5423547617383612
F1.5501058790399262
tp2002
ag6
(g10
S'\x00\x00\x00\x00\x00\x00\x00\x00'
p2003
tp2004
Rp2005
ag6
(g10
S'\x0fIHb\x13=\xb4?'
p2006
tp2007
Rp2008
aaa(lp2009
g1999
a(lp2010
(F-0.4674811363220215
F-0.7673740386962891
F-3.141592502593994
F-1.5194079875946045
F-0.15684953331947327
F0.4398689270019531
F1.6206507682800293
tp2011
a(F-0.22823296371237115
F-1.2217304763960306
F-2.616736662631547
F-1.377286135587659
F-1.0641451254588628
F-0.22164129506914124
F2.4940864017745197
tp2012
a(F0.5867652251020496
F-1.0580513007706065
F3.141592653589793
F-0.984664231537689
F0.3334336296024477
F-0.5488347144096755
F1.1818265475772105
tp2013
ag6
(g10
S'\x00\x00\x00\x00\x00\x00\xf0?'
p2014
tp2015
Rp2016
ag6
(g10
S'\x90\x11S\xb6=~\xd1?'
p2017
tp2018
Rp2019
aaa(lp2020
g2010
a(lp2021
(F-0.4674811363220215
F-0.7673740386962891
F-3.141592502593994
F-1.5194079875946045
F-0.15684953331947327
F0.4398689270019531
F1.6206507682800293
tp2022
a(F0.023362486877314403
F-0.931726511484844
F-3.062331728423785
F-1.782261057541781
F-0.022452124758298275
F0.6013706684980958
F1.5381667728197588
tp2023
a(F-0.521869233706857
F-0.758581976484369
F3.141592653589793
F-1.4206773172032503
F-1.7850403102507524
F1.0982323089057613
F2.573745473201132
tp2024
ag6
(g10
S'O7\xfa\x15\xdf4\xa8?'
p2025
tp2026
Rp2027
ag6
(g10
S'\x00\x00\x00\x00\x00\x00\xf0?'
p2028
tp2029
Rp2030
aaa(lp2031
g2021
a(lp2032
(F-0.4674811363220215
F-0.7673740386962891
F-3.141592502593994
F-1.5194079875946045
F-0.15684953331947327
F0.4398689270019531
F1.6206507682800293
tp2033
a(F-0.24292151546154234
F-1.2217304763960306
F-2.565675269461092
F-1.2407701064103562
F-0.7652422751963112
F-0.3356357969178787
F2.1695612429983147
tp2034
a(F0.4555939746426441
F-1.028569696437518
F3.141592653589793
F-1.6389763019258436
F-1.115645963491972
F0.32326827658662854
F2.503987781704963
tp2035
ag6
(g10
S'XV\xd0\x11\xfa\x8a\xd2?'
p2036
tp2037
Rp2038
ag6
(g10
S'5 \\\xaa\xbc\xe6\xd0?'
p2039
tp2040
Rp2041
aaa(lp2042
g2032
a(lp2043
(F-0.4674811363220215
F-0.7673740386962891
F-3.141592502593994
F-1.5194079875946045
F-0.15684953331947327
F0.4398689270019531
F1.6206507682800293
tp2044
a(F0.024574645397492306
F-1.0709847031274338
F-3.0651160599335148
F-1.73415044017223
F-0.026700632365795847
F0.41462126717081577
F1.5555377919179902
tp2045
a(F-0.5218629722006386
F-0.7330534375396465
F3.141592653589793
F-1.4254160593863796
F-1.7697752589485105
F1.0920300595255594
F2.5404206583957936
tp2046
ag6
(g10
S'\x00\x00\x00\x00\x00\x00\x00\x00'
p2047
tp2048
Rp2049
ag6
(g10
S'\x00\x00\x00\x00\x00\x00\xf0?'
p2050
tp2051
Rp2052
aaa(lp2053
g2043
a(lp2054
(F-0.4674811363220215
F-0.7673740386962891
F-3.141592502593994
F-1.5194079875946045
F-0.15684953331947327
F0.4398689270019531
F1.6206507682800293
tp2055
a(F-0.23897569235649857
F-1.2217304763960306
F-2.590784484006055
F-1.3351990738229005
F-0.9507863640010378
F-0.257719961558473
F2.370770345373022
tp2056
a(F-0.31166961307949237
F-0.8488910379426738
F3.141592653589793
F-1.6635425986391095
F-1.5579767985082518
F0.9278525604789927
F2.4142121373617664
tp2057
ag6
(g10
S'\x00\x00\x00\x00\x00\x00\x00\x00'
p2058
tp2059
Rp2060
ag6
(g10
S'\x08\xdf\xe9N\xc6\x81\xe9?'
p2061
tp2062
Rp2063
aaa(lp2064
g2054
a(lp2065
(F-0.4674811363220215
F-0.7673740386962891
F-3.141592502593994
F-1.5194079875946045
F-0.15684953331947327
F0.4398689270019531
F1.6206507682800293
tp2066
a(F0.025841952593999087
F-1.0996036308980432
F-3.0674787362933467
F-1.7163906147001364
F-0.03143367396470202
F0.36843527638560786
F1.5633820357179022
tp2067
a(F-0.7198738631234325
F-1.0547466811531971
F3.141592653589793
F-2.086157804053295
F-1.7499787869641954
F1.1566219169901633
F2.1454122405358946
tp2068
ag6
(g10
S'\x00\x00\x00\x00\x00\x00\x00\x00'
p2069
tp2070
Rp2071
ag6
(g10
S'\xd1\xd3\xfc\x87\xea\xc5\xed?'
p2072
tp2073
Rp2074
aaa(lp2075
g2065
a(lp2076
(F-0.4674811363220215
F-0.7673740386962891
F-3.141592502593994
F-1.5194079875946045
F-0.15684953331947327
F0.4398689270019531
F1.6206507682800293
tp2077
a(F0.023362486877314403
F-0.931726511484844
F-3.062331728423785
F-1.782261057541781
F-0.022452124758298275
F0.6013706684980958
F1.5381667728197588
tp2078
a(F-0.7386256683728062
F-1.041782752697809
F3.141592653589793
F-2.059556726582685
F-1.7709982247280232
F1.1687549027288204
F2.158002940952318
tp2079
ag6
(g10
S'\x00\x00\x00\x00\x00\x00\x00\x00'
p2080
tp2081
Rp2082
ag6
(g10
S'\x96ml\x13\x9d[\xee?'
p2083
tp2084
Rp2085
aaa(lp2086
g2076
a(lp2087
(F-0.4674811363220215
F-0.7673740386962891
F-3.141592502593994
F-1.5194079875946045
F-0.15684953331947327
F0.4398689270019531
F1.6206507682800293
tp2088
a(F0.023362486877314403
F-0.931726511484844
F-3.062331728423785
F-1.782261057541781
F-0.022452124758298275
F0.6013706684980958
F1.5381667728197588
tp2089
a(F-0.5218807634141857
F-0.8255083916138866
F3.141592653589793
F-1.397447507006479
F-1.828727522390997
F1.1193242154886427
F2.671677260231434
tp2090
ag6
(g10
S'{\xe2k\xac\x8f1\xc7?'
p2091
tp2092
Rp2093
ag6
(g10
S'\x00\x00\x00\x00\x00\x00\xf0?'
p2094
tp2095
Rp2096
aaa(lp2097
g2087
a(lp2098
(F-0.4674811363220215
F-0.7673740386962891
F-3.141592502593994
F-1.5194079875946045
F-0.15684953331947327
F0.4398689270019531
F1.6206507682800293
tp2099
a(F0.023362486877314403
F-0.931726511484844
F-3.062331728423785
F-1.782261057541781
F-0.022452124758298275
F0.6013706684980958
F1.5381667728197588
tp2100
a(F0.42802773868179883
F-0.7959331823697559
F3.141592653589793
F-1.554713832834494
F-0.8475009596996321
F0.42457726400014684
F2.1978450834713366
tp2101
ag6
(g10
S'\x00\x00\x00\x00\x00\x00\x00\x00'
p2102
tp2103
Rp2104
ag6
(g10
S'\x19B\xc2\xc0\x1b\xa5\xd4?'
p2105
tp2106
Rp2107
aaa(lp2108
g2098
a(lp2109
(F-0.4674811363220215
F-0.7673740386962891
F-3.141592502593994
F-1.5194079875946045
F-0.15684953331947327
F0.4398689270019531
F1.6206507682800293
tp2110
a(F-0.24292151546154234
F-1.2217304763960306
F-2.565675269461092
F-1.2407701064103562
F-0.7652422751963112
F-0.3356357969178787
F2.1695612429983147
tp2111
a(F0.5980628888758838
F-1.0920340149918428
F3.141592653589793
F-1.036382201618258
F0.32446843708362644
F-0.5284116261747597
F1.1914349162969637
tp2112
ag6
(g10
S'\x00\x00\x00\x00\x00\x00\xf0?'
p2113
tp2114
Rp2115
ag6
(g10
S'\xc5l\x160\xbbO\xd0?'
p2116
tp2117
Rp2118
aaa(lp2119
g2109
a(lp2120
(F-0.4674811363220215
F-0.7673740386962891
F-3.141592502593994
F-1.5194079875946045
F-0.15684953331947327
F0.4398689270019531
F1.6206507682800293
tp2121
a(F-0.24292151546154234
F-1.2217304763960306
F-2.565675269461092
F-1.2407701064103562
F-0.7652422751963112
F-0.3356357969178787
F2.1695612429983147
tp2122
a(F0.7096026359064667
F-0.9456419955938459
F3.141592653589793
F-1.862237029507907
F-0.13304959718890602
F0.47585100804422004
F1.641029250113934
tp2123
ag6
(g10
S'\x00\x00\x00\x00\x00\x00\x00\x00'
p2124
tp2125
Rp2126
ag6
(g10
S'\x0c\x86\xdb\xac\xfd\xd1\xbc?'
p2127
tp2128
Rp2129
aaa(lp2130
g2120
a(lp2131
(F-0.4674811363220215
F-0.7673740386962891
F-3.141592502593994
F-1.5194079875946045
F-0.15684953331947327
F0.4398689270019531
F1.6206507682800293
tp2132
a(F0.02748792308686296
F-1.1315163185699686
F-3.0705101299597457
F-1.6918402807732824
F-0.039784890490727705
F0.3122132171434709
F1.5752126549586782
tp2133
a(F1.4346858444135344
F-1.2217304763960306
F1.9476519935145373
F-1.4392506340243405
F1.1284623323029404
F-0.665318324148185
F0.627727134809479
tp2134
ag6
(g10
S'\x00\x00\x00\x00\x00\x00\xf0?'
p2135
tp2136
Rp2137
ag6
(g10
S'[[\xc1\xd7 \xb1\xa8?'
p2138
tp2139
Rp2140
aaa(lp2141
g2131
a(lp2142
(F-0.4674811363220215
F-0.7673740386962891
F-3.141592502593994
F-1.5194079875946045
F-0.15684953331947327
F0.4398689270019531
F1.6206507682800293
tp2143
a(F-0.19816938397074954
F-1.2217304763960306
F-2.678014416554316
F-1.4404121120404587
F-1.3122862178718475
F-0.1668861210678762
F2.7613649547947277
tp2144
a(F1.479769034234656
F-1.2217304763960306
F1.6136003054449357
F-1.5568094538346402
F1.3455499117385288
F-0.908626356476627
F0.3579275911803597
tp2145
ag6
(g10
S'\x00\x00\x00\x00\x00\x00\xf0?'
p2146
tp2147
Rp2148
ag6
(g10
S'\xbf~\x7f\xd1\xa1\xdb\xba?'
p2149
tp2150
Rp2151
aaa(lp2152
g2142
a(lp2153
(F-0.4674811363220215
F-0.7673740386962891
F-3.141592502593994
F-1.5194079875946045
F-0.15684953331947327
F0.4398689270019531
F1.6206507682800293
tp2154
a(F-0.2350512379275447
F-1.2217304763960306
F-2.600891426106677
F-1.3536350716242107
F-0.9970331936760419
F-0.24200040010751722
F2.42113755650787
tp2155
a(F-0.7386256683728062
F-1.041782752697809
F3.141592653589793
F-2.059556726582685
F-1.7709982247280232
F1.1687549027288204
F2.158002940952318
tp2156
ag6
(g10
S'\x00\x00\x00\x00\x00\x00\x00\x00'
p2157
tp2158
Rp2159
ag6
(g10
S'\x96ml\x13\x9d[\xee?'
p2160
tp2161
Rp2162
aaa(lp2163
g2153
a(lp2164
(F-0.4674811363220215
F-0.7673740386962891
F-3.141592502593994
F-1.5194079875946045
F-0.15684953331947327
F0.4398689270019531
F1.6206507682800293
tp2165
a(F0.023362486877314403
F-0.931726511484844
F-3.062331728423785
F-1.782261057541781
F-0.022452124758298275
F0.6013706684980958
F1.5381667728197588
tp2166
a(F-0.07135627046486336
F-0.8988069833136285
F3.141592653589793
F-1.766072076413351
F-1.3141164993495975
F0.7761864199113225
F2.3168627298743556
tp2167
ag6
(g10
S'\x00\x00\x00\x00\x00\x00\x00\x00'
p2168
tp2169
Rp2170
ag6
(g10
S'?\x87\x1a\xea\xb7a\xe3?'
p2171
tp2172
Rp2173
aaa(lp2174
g2164
a(lp2175
(F-0.4674811363220215
F-0.7673740386962891
F-3.141592502593994
F-1.5194079875946045
F-0.15684953331947327
F0.4398689270019531
F1.6206507682800293
tp2176
a(F0.02548975611926166
F-1.0921348989710342
F-3.066825179012049
F-1.7213747798805878
F-0.029996441754413346
F0.3808360609563713
F1.5611306117474977
tp2177
a(F0.7782882563084182
F-1.1762527646660026
F3.141592653589793
F-1.954226346883612
F0.0036843789561360717
F0.33451019876064725
F1.5486675995401018
tp2178
ag6
(g10
S'\xfd3D`\xb8q\xcd?'
p2179
tp2180
Rp2181
ag6
(g10
S'\x0fIHb\x13=\xb4?'
p2182
tp2183
Rp2184
aaa(lp2185
g2175
a(lp2186
(F-0.4674811363220215
F-0.7673740386962891
F-3.141592502593994
F-1.5194079875946045
F-0.15684953331947327
F0.4398689270019531
F1.6206507682800293
tp2187
a(F0.025537976505485713
F-1.0931762074351163
F-3.0669147869486326
F-1.7206954825104557
F-0.030187307627052514
F0.3791226377126095
F1.5614349218450496
tp2188
a(F-0.6741915150669657
F-1.0550534968015315
F3.141592653589793
F-2.0867873559789882
F-1.712329757039077
F1.1334153203099713
F2.1491734194243746
tp2189
ag6
(g10
S'\x00\x00\x00\x00\x00\x00\x00\x00'
p2190
tp2191
Rp2192
ag6
(g10
S')1\x99K\x9f\xf7\xec?'
p2193
tp2194
Rp2195
aaa(lp2196
g2186
a(lp2197
(F-0.4674811363220215
F-0.7673740386962891
F-3.141592502593994
F-1.5194079875946045
F-0.15684953331947327
F0.4398689270019531
F1.6206507682800293
tp2198
a(F0.02695876260413114
F-1.1216374637174418
F-3.069538876941223
F-1.7000513885243425
F-0.0367514140971521
F0.33022501734589405
F1.571104244227598
tp2199
a(F0.7782795233831907
F-1.0114097520941925
F3.141592653589793
F-1.9972287494840864
F0.0023583412126293637
F0.5423547617383612
F1.5501058790399262
tp2200
ag6
(g10
S'\x00\x00\x00\x00\x00\x00\x00\x00'
p2201
tp2202
Rp2203
ag6
(g10
S'\x0fIHb\x13=\xb4?'
p2204
tp2205
Rp2206
aaa(lp2207
g2197
a(lp2208
(F-0.4674811363220215
F-0.7673740386962891
F-3.141592502593994
F-1.5194079875946045
F-0.15684953331947327
F0.4398689270019531
F1.6206507682800293
tp2209
a(F0.030287731009286632
F-1.185367361784727
F-3.075615405529109
F-1.6340357581747151
F-0.0697931490619617
F0.201077567155014
F1.6109208830638535
tp2210
a(F0.5568723582940602
F-0.9617239126652309
F3.141592653589793
F-1.0194401169252278
F0.48136009531617713
F-0.43997820336523397
F1.0143782738870644
tp2211
ag6
(g10
S';\xdb\xe4\x1d\x8c\x95\xe9?'
p2212
tp2213
Rp2214
ag6
(g10
S'\xdbQ\x14\xd6\x87\xdc\xd4?'
p2215
tp2216
Rp2217
aaa(lp2218
g2208
a(lp2219
(F-0.4674811363220215
F-0.7673740386962891
F-3.141592502593994
F-1.5194079875946045
F-0.15684953331947327
F0.4398689270019531
F1.6206507682800293
tp2220
a(F-0.24292151546154234
F-1.2217304763960306
F-2.565675269461092
F-1.2407701064103562
F-0.7652422751963112
F-0.3356357969178787
F2.1695612429983147
tp2221
a(F0.630387086143016
F-1.2217304763960306
F1.9335537476843259
F-2.243427726107082
F-1.504041426144701
F1.3303691855597104
F2.402778690232488
tp2222
ag6
(g10
S'\x95:\xdd\x1b\x97o\xd1?'
p2223
tp2224
Rp2225
ag6
(g10
S'L\x08U\xf2\xf9\xa3\xe0?'
p2226
tp2227
Rp2228
aaa(lp2229
g2219
a(lp2230
(F-0.4674811363220215
F-0.7673740386962891
F-3.141592502593994
F-1.5194079875946045
F-0.15684953331947327
F0.4398689270019531
F1.6206507682800293
tp2231
a(F0.023362486877314403
F-0.931726511484844
F-3.062331728423785
F-1.782261057541781
F-0.022452124758298275
F0.6013706684980958
F1.5381667728197588
tp2232
a(F0.11471576113627069
F-1.2217304763960306
F2.701485442517174
F-1.254288067853762
F1.2233779645094285
F-1.1295981035008218
F0.20520351493784905
tp2233
ag6
(g10
S'\x00\x00\x00\x00\x00\x00\xf0?'
p2234
tp2235
Rp2236
ag6
(g10
S'\x14\xa0\x02\x10\xe2\xad\xe4?'
p2237
tp2238
Rp2239
aaa(lp2240
g2230
a(lp2241
(F-0.4674811363220215
F-0.7673740386962891
F-3.141592502593994
F-1.5194079875946045
F-0.15684953331947327
F0.4398689270019531
F1.6206507682800293
tp2242
a(F0.023362486877314403
F-0.931726511484844
F-3.062331728423785
F-1.782261057541781
F-0.022452124758298275
F0.6013706684980958
F1.5381667728197588
tp2243
a(F1.4082052321685277
F-1.2217304763960306
F2.036903510354779
F-1.4102685844402225
F1.0517874715795839
F-0.6188754376579236
F0.7071477140249556
tp2244
ag6
(g10
S'\x00\x00\x00\x00\x00\x00\xf0?'
p2245
tp2246
Rp2247
ag6
(g10
S'\x0fIHb\x13=\xb4?'
p2248
tp2249
Rp2250
aaa(lp2251
g2241
a(lp2252
(F-0.4674811363220215
F-0.7673740386962891
F-3.141592502593994
F-1.5194079875946045
F-0.15684953331947327
F0.4398689270019531
F1.6206507682800293
tp2253
a(F0.023549495492961592
F-1.0428938072479403
F-3.0631785819093973
F-1.7484236437308471
F-0.02368778537500271
F0.4568115495838706
F1.549502056526417
tp2254
a(F0.7490067020784125
F-1.2217304763960306
F1.390581111942467
F-1.6487754389886162
F-1.6832249648647506
F1.7673892544984604
F3.0139282965001897
tp2255
ag6
(g10
S'\xae\xc9)\xf4\xc9\xa2\xef?'
p2256
tp2257
Rp2258
ag6
(g10
S'i\xc3\t9\x1d;\xe4?'
p2259
tp2260
Rp2261
aaa(lp2262
g2252
a(lp2263
(F-0.4674811363220215
F-0.7673740386962891
F-3.141592502593994
F-1.5194079875946045
F-0.15684953331947327
F0.4398689270019531
F1.6206507682800293
tp2264
a(F0.023362486877314403
F-0.931726511484844
F-3.062331728423785
F-1.782261057541781
F-0.022452124758298275
F0.6013706684980958
F1.5381667728197588
tp2265
a(F0.4658509053674355
F-1.2217304763960306
F1.5268572131624063
F-1.5883597177179978
F-1.692073974844414
F1.8926162432764864
F2.9616071745765606
tp2266
ag6
(g10
S'\x00\x00\x00\x00\x00\x00\xf0?'
p2267
tp2268
Rp2269
ag6
(g10
S'\x8fJf\xdaf\t\xe8?'
p2270
tp2271
Rp2272
aaa(lp2273
g2263
a(lp2274
(F-0.4674811363220215
F-0.7673740386962891
F-3.141592502593994
F-1.5194079875946045
F-0.15684953331947327
F0.4398689270019531
F1.6206507682800293
tp2275
a(F0.023362486877314403
F-0.931726511484844
F-3.062331728423785
F-1.782261057541781
F-0.022452124758298275
F0.6013706684980958
F1.5381667728197588
tp2276
a(F0.7782795233831907
F-1.0114097520941925
F3.141592653589793
F-1.9972287494840864
F0.0023583412126293637
F0.5423547617383612
F1.5501058790399262
tp2277
ag6
(g10
S'\x00\x00\x00\x00\x00\x00\x00\x00'
p2278
tp2279
Rp2280
ag6
(g10
S'\x0fIHb\x13=\xb4?'
p2281
tp2282
Rp2283
aaa(lp2284
g2274
a(lp2285
(F-0.4674811363220215
F-0.7673740386962891
F-3.141592502593994
F-1.5194079875946045
F-0.15684953331947327
F0.4398689270019531
F1.6206507682800293
tp2286
a(F0.023118257324376505
F-0.9810566417044765
F-3.062097769119766
F-1.771122106617078
F-0.021985726747641543
F0.5410769783874446
F1.5420087504068227
tp2287
a(F0.49601207224712424
F-1.2217304763960306
F1.5091345642904457
F-1.5947985688791293
F-1.6907285432283075
F1.8825277843972745
F2.9669845353572764
tp2288
ag6
(g10
S'\x00\x00\x00\x00\x00\x00\xf0?'
p2289
tp2290
Rp2291
ag6
(g10
S'\x9dJ\xb52\xd3\xa3\xe7?'
p2292
tp2293
Rp2294
aaa(lp2295
g2285
a(lp2296
(F-0.4674811363220215
F-0.7673740386962891
F-3.141592502593994
F-1.5194079875946045
F-0.15684953331947327
F0.4398689270019531
F1.6206507682800293
tp2297
a(F0.023362486877314403
F-0.931726511484844
F-3.062331728423785
F-1.782261057541781
F-0.022452124758298275
F0.6013706684980958
F1.5381667728197588
tp2298
a(F-0.5987759864014558
F-0.8807346435941344
F3.141592653589793
F-1.7289556686659997
F-1.7412058685574812
F1.1178391975982143
F2.3576404670159237
tp2299
ag6
(g10
S'\x00\x00\x00\x00\x00\x00\x00\x00'
p2300
tp2301
Rp2302
ag6
(g10
S'L><\x922\xe8\xee?'
p2303
tp2304
Rp2305
aaa(lp2306
g2296
a(lp2307
(F-0.4674811363220215
F-0.7673740386962891
F-3.141592502593994
F-1.5194079875946045
F-0.15684953331947327
F0.4398689270019531
F1.6206507682800293
tp2308
a(F0.023362486877314403
F-0.931726511484844
F-3.062331728423785
F-1.782261057541781
F-0.022452124758298275
F0.6013706684980958
F1.5381667728197588
tp2309
a(F0.5223066479611053
F-1.2217304763960306
F1.802844106916137
F-1.4888953323507719
F1.4665291403235658
F-1.5782193582904331
F-0.02435570981590672
tp2310
ag6
(g10
S'\x00\x00\x00\x00\x00\x00\xf0?'
p2311
tp2312
Rp2313
ag6
(g10
S'\x9a\x1a\x10\xf8\xee\xbd\xe4?'
p2314
tp2315
Rp2316
aaa(lp2317
g2307
a(lp2318
(F-0.4674811363220215
F-0.7673740386962891
F-3.141592502593994
F-1.5194079875946045
F-0.15684953331947327
F0.4398689270019531
F1.6206507682800293
tp2319
a(F0.023286825674230356
F-1.0346022951552551
F-3.0626775027440574
F-1.752115063912902
F-0.02302888701869562
F0.46874552517499757
F1.5479579867912185
tp2320
a(F-0.5770485693043639
F-1.1908868011566645
F3.141592653589793
F-2.2357282053888503
F-1.624488753373724
F1.0830460756992246
F2.1399816234343807
tp2321
ag6
(g10
S'Z\xef<V\xce\xa7\xaf?'
p2322
tp2323
Rp2324
ag6
(g10
S'\xa7\x04C6\x0b\xdb\xe9?'
p2325
tp2326
Rp2327
aaa(lp2328
g2318
a(lp2329
(F-0.4674811363220215
F-0.7673740386962891
F-3.141592502593994
F-1.5194079875946045
F-0.15684953331947327
F0.4398689270019531
F1.6206507682800293
tp2330
a(F0.02333989682095824
F-0.9355405650198858
F-3.062304338805677
F-1.7815909549186573
F-0.02239016416864202
F0.5968997049746071
F1.5384358452547593
tp2331
a(F0.691559685829947
F-0.9252328288434297
F3.141592653589793
F-1.8203353990700086
F-0.17571075809586
F0.4563246223533486
F1.672881512920699
tp2332
ag6
(g10
S'\x00\x00\x00\x00\x00\x00\x00\x00'
p2333
tp2334
Rp2335
ag6
(g10
S'U\x9e\x18_\xee\xa7\xc0?'
p2336
tp2337
Rp2338
aaa(lp2339
g2329
a(lp2340
(F-0.4674811363220215
F-0.7673740386962891
F-3.141592502593994
F-1.5194079875946045
F-0.15684953331947327
F0.4398689270019531
F1.6206507682800293
tp2341
a(F0.024577951558577005
F-1.0710666482591364
F-3.0651222664721134
F-1.7341045112431872
F-0.02671147963799198
F0.4144939202771047
F1.5555575077925659
tp2342
a(F-0.5539842637217797
F-0.8027736900396018
F3.141592653589793
F-1.568774362992081
F-1.75175740558068
F1.1016373936867254
F2.4540747425637544
tp2343
ag6
(g10
S'\x00\x00\x00\x00\x00\x00\x00\x00'
p2344
tp2345
Rp2346
ag6
(g10
S'\\k^\xc27q\xef?'
p2347
tp2348
Rp2349
aaa(lp2350
g2340
a(lp2351
(F-0.4674811363220215
F-0.7673740386962891
F-3.141592502593994
F-1.5194079875946045
F-0.15684953331947327
F0.4398689270019531
F1.6206507682800293
tp2352
a(F0.023362486877314403
F-0.931726511484844
F-3.062331728423785
F-1.782261057541781
F-0.022452124758298275
F0.6013706684980958
F1.5381667728197588
tp2353
a(F-0.13154347817311277
F-1.040902493046261
F3.141592653589793
F-2.057750449741375
F-1.237455130316259
F0.8538024328615789
F2.134347932486211
tp2354
ag6
(g10
S'\x00\x00\x00\x00\x00\x00\x00\x00'
p2355
tp2356
Rp2357
ag6
(g10
S's\xca\xd8\xe2;\x9e\xe2?'
p2358
tp2359
Rp2360
aaa(lp2361
g2351
a(lp2362
(F-0.4674811363220215
F-0.7673740386962891
F-3.141592502593994
F-1.5194079875946045
F-0.15684953331947327
F0.4398689270019531
F1.6206507682800293
tp2363
a(F0.02329842039314342
F-0.942829118809941
F-3.0622562645713534
F-1.780225315897809
F-0.02228268749486716
F0.5882708956919849
F1.5389620113025064
tp2364
a(F0.37377854420032897
F-1.2217304763960306
F1.7996619872668316
F-1.490012912845504
F1.4615720575008533
F-1.7152952594403954
F-0.0900265222760218
tp2365
ag6
(g10
S'\x00\x00\x00\x00\x00\x00\xf0?'
p2366
tp2367
Rp2368
ag6
(g10
S'\x16\x83\xcdNQ\xae\xe7?'
p2369
tp2370
Rp2371
aaa(lp2372
g2362
a(lp2373
(F-0.4674811363220215
F-0.7673740386962891
F-3.141592502593994
F-1.5194079875946045
F-0.15684953331947327
F0.4398689270019531
F1.6206507682800293
tp2374
a(F0.023362486877314403
F-0.931726511484844
F-3.062331728423785
F-1.782261057541781
F-0.022452124758298275
F0.6013706684980958
F1.5381667728197588
tp2375
a(F0.1648217597582357
F-1.1468176856921761
F3.141592653589793
F-2.1790422148450443
F-0.8969188091715921
F0.7264950296349564
F2.0113315999595582
tp2376
ag6
(g10
S'D\xbe\x97\xd6\x01\xd0\xa8?'
p2377
tp2378
Rp2379
ag6
(g10
S'\xb1DX\x9d^m\xd7?'
p2380
tp2381
Rp2382
aaa(lp2383
g2373
a(lp2384
(F-0.4674811363220215
F-0.7673740386962891
F-3.141592502593994
F-1.5194079875946045
F-0.15684953331947327
F0.4398689270019531
F1.6206507682800293
tp2385
a(F0.023362486877314403
F-0.931726511484844
F-3.062331728423785
F-1.782261057541781
F-0.022452124758298275
F0.6013706684980958
F1.5381667728197588
tp2386
a(F0.7011128127709055
F-1.1573279167352515
F1.8858332092183474
F-2.251474735072685
F-1.4381461028759672
F1.3602494972318941
F2.40091192127487
tp2387
ag6
(g10
S'\x13\xdb\xd2S\x17"\xd0?'
p2388
tp2389
Rp2390
ag6
(g10
S'5i\xf6\xa3\x9fP\xdf?'
p2391
tp2392
Rp2393
aaa(lp2394
g2384
a(lp2395
(F-0.4674811363220215
F-0.7673740386962891
F-3.141592502593994
F-1.5194079875946045
F-0.15684953331947327
F0.4398689270019531
F1.6206507682800293
tp2396
a(F0.023362486877314403
F-0.931726511484844
F-3.062331728423785
F-1.782261057541781
F-0.022452124758298275
F0.6013706684980958
F1.5381667728197588
tp2397
a(F0.7782795233831907
F-1.0114097520941925
F3.141592653589793
F-1.9972287494840864
F0.0023583412126293637
F0.5423547617383612
F1.5501058790399262
tp2398
ag6
(g10
S'\x00\x00\x00\x00\x00\x00\x00\x00'
p2399
tp2400
Rp2401
ag6
(g10
S'\x0fIHb\x13=\xb4?'
p2402
tp2403
Rp2404
aaa(lp2405
g2395
a(lp2406
(F-0.4674811363220215
F-0.7673740386962891
F-3.141592502593994
F-1.5194079875946045
F-0.15684953331947327
F0.4398689270019531
F1.6206507682800293
tp2407
a(F0.023252559094023087
F-0.9513930445773302
F-3.0622070029599193
F-1.7784747187937822
F-0.022175648936588004
F0.577986486618636
F1.539601181005267
tp2408
a(F1.4082052321685277
F-1.2217304763960306
F2.036903510354779
F-1.4102685844402225
F1.0517874715795839
F-0.6188754376579236
F0.7071477140249556
tp2409
ag6
(g10
S'\x00\x00\x00\x00\x00\x00\xf0?'
p2410
tp2411
Rp2412
ag6
(g10
S'\x0fIHb\x13=\xb4?'
p2413
tp2414
Rp2415
aaa(lp2416
g2406
a(lp2417
(F-0.4674811363220215
F-0.7673740386962891
F-3.141592502593994
F-1.5194079875946045
F-0.15684953331947327
F0.4398689270019531
F1.6206507682800293
tp2418
a(F0.023362486877314403
F-0.931726511484844
F-3.062331728423785
F-1.782261057541781
F-0.022452124758298275
F0.6013706684980958
F1.5381667728197588
tp2419
a(F0.5568725489938281
F-0.953414438518474
F3.141592653589793
F-0.8183658073708441
F0.347817654424896
F-0.6168883963939663
F1.1683218392302466
tp2420
ag6
(g10
S'\x00\x00\x00\x00\x00\x00\xf0?'
p2421
tp2422
Rp2423
ag6
(g10
S'\xdbQ\x14\xd6\x87\xdc\xd4?'
p2424
tp2425
Rp2426
aaa(lp2427
g2417
a(lp2428
(F-0.4674811363220215
F-0.7673740386962891
F-3.141592502593994
F-1.5194079875946045
F-0.15684953331947327
F0.4398689270019531
F1.6206507682800293
tp2429
a(F-0.2085948693548813
F-1.2217304763960306
F-2.6576509728496047
F-1.422729331212135
F-1.2290590697080022
F-0.1821855787579511
F2.672179145218564
tp2430
a(F0.43586271689466716
F-1.2217304763960306
F1.9365979464611647
F-1.6785467784167118
F-1.6766990464706029
F1.5026580204589786
F2.9060736307622443
tp2431
ag6
(g10
S'\xf8\xd4\xaa+^j\xe8?'
p2432
tp2433
Rp2434
ag6
(g10
S'*\x8d\xfe\xa3\x95\x94\xe5?'
p2435
tp2436
Rp2437
aaa(lp2438
g2428
a(lp2439
(F-0.4674811363220215
F-0.7673740386962891
F-3.141592502593994
F-1.5194079875946045
F-0.15684953331947327
F0.4398689270019531
F1.6206507682800293
tp2440
a(F0.023362486877314403
F-0.931726511484844
F-3.062331728423785
F-1.782261057541781
F-0.022452124758298275
F0.6013706684980958
F1.5381667728197588
tp2441
a(F-0.5564280410619135
F-0.8075424804182908
F3.141592653589793
F-1.5785759287536334
F-1.750788380667644
F1.1024665054355594
F2.448170979045212
tp2442
ag6
(g10
S'\x00\x00\x00\x00\x00\x00\x00\x00'
p2443
tp2444
Rp2445
ag6
(g10
S'\xfe\x93\x18\xa2\x06h\xef?'
p2446
tp2447
Rp2448
aaa(lp2449
g2439
a(lp2450
(F-0.4674811363220215
F-0.7673740386962891
F-3.141592502593994
F-1.5194079875946045
F-0.15684953331947327
F0.4398689270019531
F1.6206507682800293
tp2451
a(F0.023362486877314403
F-0.931726511484844
F-3.062331728423785
F-1.782261057541781
F-0.022452124758298275
F0.6013706684980958
F1.5381667728197588
tp2452
a(F0.571749109300507
F-0.7365450108395892
F3.141592653589793
F-1.4325981577496498
F-0.6587423882628026
F0.3053751736061089
F2.098409161167657
tp2453
ag6
(g10
S'\x00\x00\x00\x00\x00\x00\x00\x00'
p2454
tp2455
Rp2456
ag6
(g10
S'Q\xd0\xa1=[#\xd3?'
p2457
tp2458
Rp2459
aaa(lp2460
g2450
a(lp2461
(F-0.4674811363220215
F-0.7673740386962891
F-3.141592502593994
F-1.5194079875946045
F-0.15684953331947327
F0.4398689270019531
F1.6206507682800293
tp2462
a(F0.023362486877314403
F-0.931726511484844
F-3.062331728423785
F-1.782261057541781
F-0.022452124758298275
F0.6013706684980958
F1.5381667728197588
tp2463
a(F0.5568725489938281
F-0.953414438518474
F3.141592653589793
F-0.8183658073708441
F0.347817654424896
F-0.6168883963939663
F1.1683218392302466
tp2464
ag6
(g10
S'\x00\x00\x00\x00\x00\x00\xf0?'
p2465
tp2466
Rp2467
ag6
(g10
S'\xdbQ\x14\xd6\x87\xdc\xd4?'
p2468
tp2469
Rp2470
aaa(lp2471
g2461
a(lp2472
(F-0.4674811363220215
F-0.7673740386962891
F-3.141592502593994
F-1.5194079875946045
F-0.15684953331947327
F0.4398689270019531
F1.6206507682800293
tp2473
a(F0.023362486877314403
F-0.931726511484844
F-3.062331728423785
F-1.782261057541781
F-0.022452124758298275
F0.6013706684980958
F1.5381667728197588
tp2474
a(F0.0630604405413232
F-0.8993685946164506
F3.141592653589793
F-1.7672254040021558
F-1.1802930407325802
F0.693941479122615
F2.2748093430618193
tp2475
ag6
(g10
S'\x00\x00\x00\x00\x00\x00\x00\x00'
p2476
tp2477
Rp2478
ag6
(g10
S'\x04\xb5\x15>\xb5W\xe0?'
p2479
tp2480
Rp2481
aaa(lp2482
g2472
a(lp2483
(F-0.4674811363220215
F-0.7673740386962891
F-3.141592502593994
F-1.5194079875946045
F-0.15684953331947327
F0.4398689270019531
F1.6206507682800293
tp2484
a(F0.023362486877314403
F-0.931726511484844
F-3.062331728423785
F-1.782261057541781
F-0.022452124758298275
F0.6013706684980958
F1.5381667728197588
tp2485
a(F0.4943035853884601
F-1.0984347866822084
F3.141592653589793
F-1.0459961884663884
F0.48852225476250416
F-0.5665750623584846
F1.006032954415437
tp2486
ag6
(g10
S'\x00\x00\x00\x00\x00\x00\xf0?'
p2487
tp2488
Rp2489
ag6
(g10
S'O\x16\xad\x83\x17\x9c\xd2?'
p2490
tp2491
Rp2492
aaa(lp2493
g2483
a(lp2494
(F-0.4674811363220215
F-0.7673740386962891
F-3.141592502593994
F-1.5194079875946045
F-0.15684953331947327
F0.4398689270019531
F1.6206507682800293
tp2495
a(F0.023362486877314403
F-0.931726511484844
F-3.062331728423785
F-1.782261057541781
F-0.022452124758298275
F0.6013706684980958
F1.5381667728197588
tp2496
a(F0.6920050428930627
F-0.9257539708909156
F3.141592653589793
F-1.8214054173933676
F-0.1746131162806125
F0.45681683162002346
F1.6720455428027647
tp2497
ag6
(g10
S'\x00\x00\x00\x00\x00\x00\x00\x00'
p2498
tp2499
Rp2500
ag6
(g10
S'\xb7\xb3Ga\xc1\x98\xc0?'
p2501
tp2502
Rp2503
aaa(lp2504
g2494
a(lp2505
(F-0.4674811363220215
F-0.7673740386962891
F-3.141592502593994
F-1.5194079875946045
F-0.15684953331947327
F0.4398689270019531
F1.6206507682800293
tp2506
a(F0.023362486877314403
F-0.931726511484844
F-3.062331728423785
F-1.782261057541781
F-0.022452124758298275
F0.6013706684980958
F1.5381667728197588
tp2507
a(F1.0825825016960422
F-1.2217304763960306
F1.5393530341693602
F-2.007007735146428
F-1.5670957224860114
F1.3028124364539688
F2.8027912412607714
tp2508
ag6
(g10
S'D\x8f\xe0N\xde\xc4\xe2?'
p2509
tp2510
Rp2511
ag6
(g10
S'\xaap\xbe?\x16\xab\xda?'
p2512
tp2513
Rp2514
aaa(lp2515
g2505
a(lp2516
(F-0.4674811363220215
F-0.7673740386962891
F-3.141592502593994
F-1.5194079875946045
F-0.15684953331947327
F0.4398689270019531
F1.6206507682800293
tp2517
a(F0.023005502214078776
F-1.0178350465477775
F-3.062095786987238
F-1.7589327080517083
F-0.02223029380643843
F0.4922465996445724
F1.545496476491948
tp2518
a(F0.3150532710306309
F-1.2217304763960306
F2.634487787977042
F-1.2643600698801654
F1.2077991907549996
F-1.01115199848364
F0.2809392605064723
tp2519
ag6
(g10
S'\x00\x00\x00\x00\x00\x00\xf0?'
p2520
tp2521
Rp2522
ag6
(g10
S'\xe9}\xdfX~\xe7\xe0?'
p2523
tp2524
Rp2525
aaa(lp2526
g2516
a(lp2527
(F-0.4674811363220215
F-0.7673740386962891
F-3.141592502593994
F-1.5194079875946045
F-0.15684953331947327
F0.4398689270019531
F1.6206507682800293
tp2528
a(F0.023362486877314403
F-0.931726511484844
F-3.062331728423785
F-1.782261057541781
F-0.022452124758298275
F0.6013706684980958
F1.5381667728197588
tp2529
a(F-0.42473050370311
F-0.9106795663225118
F3.141592653589793
F-1.7904527726628015
F-1.5973657393067755
F1.002342466339251
F2.3345013956246046
tp2530
ag6
(g10
S'\x00\x00\x00\x00\x00\x00\x00\x00'
p2531
tp2532
Rp2533
ag6
(g10
S'\xb9@P\xbc\xa1\xd5\xea?'
p2534
tp2535
Rp2536
aaa(lp2537
g2527
a(lp2538
(F-0.4674811363220215
F-0.7673740386962891
F-3.141592502593994
F-1.5194079875946045
F-0.15684953331947327
F0.4398689270019531
F1.6206507682800293
tp2539
a(F0.023034874465359106
F-1.006168085378665
F-3.062080578860293
F-1.7631977042912232
F-0.02208567550342337
F0.5081343481471247
F1.5443207957551828
tp2540
a(F0.4718415582476005
F-0.7692485922937075
F3.141592653589793
F-1.4998543463132916
F-0.8157283956592892
F0.3817977613555464
F2.1955893617547018
tp2541
ag6
(g10
S'\x00\x00\x00\x00\x00\x00\x00\x00'
p2542
tp2543
Rp2544
ag6
(g10
S'\xefZm\x9e\xd4D\xd4?'
p2545
tp2546
Rp2547
aaa(lp2548
g2538
a(lp2549
(F-0.4674811363220215
F-0.7673740386962891
F-3.141592502593994
F-1.5194079875946045
F-0.15684953331947327
F0.4398689270019531
F1.6206507682800293
tp2550
a(F0.023362486877314403
F-0.931726511484844
F-3.062331728423785
F-1.782261057541781
F-0.022452124758298275
F0.6013706684980958
F1.5381667728197588
tp2551
a(F0.7782795233831907
F-1.0114097520941925
F3.141592653589793
F-1.9972287494840864
F0.0023583412126293637
F0.5423547617383612
F1.5501058790399262
tp2552
ag6
(g10
S'\x00\x00\x00\x00\x00\x00\x00\x00'
p2553
tp2554
Rp2555
ag6
(g10
S'\x0fIHb\x13=\xb4?'
p2556
tp2557
Rp2558
aaa(lp2559
g2549
a(lp2560
(F-0.4674811363220215
F-0.7673740386962891
F-3.141592502593994
F-1.5194079875946045
F-0.15684953331947327
F0.4398689270019531
F1.6206507682800293
tp2561
a(F0.023362486877314403
F-0.931726511484844
F-3.062331728423785
F-1.782261057541781
F-0.022452124758298275
F0.6013706684980958
F1.5381667728197588
tp2562
a(F0.7787236889642561
F-1.2217304763960306
F1.9979546768072711
F-2.161999166578057
F-1.4041778507228895
F1.163450828812351
F2.5178809310501133
tp2563
ag6
(g10
S'\xea\xd5\xec5\xd5\x1c\xd4?'
p2564
tp2565
Rp2566
ag6
(g10
S'\x95\xaa*\x02w\xe0\xda?'
p2567
tp2568
Rp2569
aaa(lp2570
g2560
a(lp2571
(F-0.4674811363220215
F-0.7673740386962891
F-3.141592502593994
F-1.5194079875946045
F-0.15684953331947327
F0.4398689270019531
F1.6206507682800293
tp2572
a(F0.023362486877314403
F-0.931726511484844
F-3.062331728423785
F-1.782261057541781
F-0.022452124758298275
F0.6013706684980958
F1.5381667728197588
tp2573
a(F0.5568405464431577
F-0.7031467836767004
F3.141592653589793
F-1.3638858059542731
F-0.7728961585016155
F0.28630563954039273
F2.2079424369811362
tp2574
ag6
(g10
S'\x00\x00\x00\x00\x00\x00\x00\x00'
p2575
tp2576
Rp2577
ag6
(g10
S'\xdbQ\x14\xd6\x87\xdc\xd4?'
p2578
tp2579
Rp2580
aaa(lp2581
g2571
a(lp2582
(F-0.4674811363220215
F-0.7673740386962891
F-3.141592502593994
F-1.5194079875946045
F-0.15684953331947327
F0.4398689270019531
F1.6206507682800293
tp2583
a(F0.029535272063604567
F-1.2101302910034504
F-3.074496614922142
F-1.596473575776102
F-0.09642146016902549
F0.1389711193313225
F1.6393718256120349
tp2584
a(F-0.2876181746502728
F-0.8571207215175345
F3.141592653589793
F-1.6804497419839544
F-1.5334841995277066
F0.9116562770320722
F2.4027881392669115
tp2585
ag6
(g10
S'\x00\x00\x00\x00\x00\x00\x00\x00'
p2586
tp2587
Rp2588
ag6
(g10
S'\xc9~\xca\x104\xd8\xe8?'
p2589
tp2590
Rp2591
aaa(lp2592
g2582
a(lp2593
(F-0.4674811363220215
F-0.7673740386962891
F-3.141592502593994
F-1.5194079875946045
F-0.15684953331947327
F0.4398689270019531
F1.6206507682800293
tp2594
a(F0.026861682243608027
F-1.1197970636343217
F-3.0693604155394647
F-1.7015169319818033
F-0.03623583461220744
F0.33351678351217123
F1.5703880055005603
tp2595
a(F0.04768424430450434
F-1.0533033735129544
F1.6332253204682545
F-1.4479269660092289
F-1.5370881050211782
F2.1552298053896446
F2.9072454198309083
tp2596
ag6
(g10
S'\x00\x00\x00\x00\x00\x00\xf0?'
p2597
tp2598
Rp2599
ag6
(g10
S'\x95\xc6\x16\x96B\xdf\xed?'
p2600
tp2601
Rp2602
aaa(lp2603
g2593
a(lp2604
(F-0.4674811363220215
F-0.7673740386962891
F-3.141592502593994
F-1.5194079875946045
F-0.15684953331947327
F0.4398689270019531
F1.6206507682800293
tp2605
a(F0.023362486877314403
F-0.931726511484844
F-3.062331728423785
F-1.782261057541781
F-0.022452124758298275
F0.6013706684980958
F1.5381667728197588
tp2606
a(F0.19698758911785813
F-0.8812059846123208
F3.141592653589793
F-1.7299237590509842
F-1.0508531854148901
F0.6069580851799924
F2.2396195620870527
tp2607
ag6
(g10
S'\x00\x00\x00\x00\x00\x00\x00\x00'
p2608
tp2609
Rp2610
ag6
(g10
S'\x16\xaf\xf7\xd2b3\xdb?'
p2611
tp2612
Rp2613
aaa(lp2614
g2604
a(lp2615
(F-0.4674811363220215
F-0.7673740386962891
F-3.141592502593994
F-1.5194079875946045
F-0.15684953331947327
F0.4398689270019531
F1.6206507682800293
tp2616
a(F-0.24292151546154234
F-1.2217304763960306
F-2.565675269461092
F-1.2407701064103562
F-0.7652422751963112
F-0.3356357969178787
F2.1695612429983147
tp2617
a(F-0.7386256683728062
F-1.041782752697809
F3.141592653589793
F-2.059556726582685
F-1.7709982247280232
F1.1687549027288204
F2.158002940952318
tp2618
ag6
(g10
S'\x00\x00\x00\x00\x00\x00\x00\x00'
p2619
tp2620
Rp2621
ag6
(g10
S'\x96ml\x13\x9d[\xee?'
p2622
tp2623
Rp2624
aaa(lp2625
g2615
a(lp2626
(F-0.4674811363220215
F-0.7673740386962891
F-3.141592502593994
F-1.5194079875946045
F-0.15684953331947327
F0.4398689270019531
F1.6206507682800293
tp2627
a(F0.023362486877314403
F-0.931726511484844
F-3.062331728423785
F-1.782261057541781
F-0.022452124758298275
F0.6013706684980958
F1.5381667728197588
tp2628
a(F0.5568478760579005
F-0.7368266537266108
F3.141592653589793
F-1.356871830059058
F-0.8800791697938881
F0.2587008843024172
F2.319225589134591
tp2629
ag6
(g10
S'\xdf6\xa3\x9d\x93\x8e\xb0?'
p2630
tp2631
Rp2632
ag6
(g10
S'\xdbQ\x14\xd6\x87\xdc\xd4?'
p2633
tp2634
Rp2635
aaa(lp2636
g2626
a(lp2637
(F-0.4674811363220215
F-0.7673740386962891
F-3.141592502593994
F-1.5194079875946045
F-0.15684953331947327
F0.4398689270019531
F1.6206507682800293
tp2638
a(F0.028270593927276447
F-1.2189048011988612
F-3.072382415208835
F-1.5805975456373107
F-0.1089401845450661
F0.11434248304657628
F1.6521179381373514
tp2639
a(F-0.6068684981720094
F-0.9766897611124411
F3.141592653589793
F-1.7360137635275354
F-1.7877926950535867
F1.1404766523915995
F2.45294257195021
tp2640
ag6
(g10
S'\xe1R\xaeJI\x16\xc1?'
p2641
tp2642
Rp2643
ag6
(g10
S'\xa3au\xc1\xbd\xd5\xee?'
p2644
tp2645
Rp2646
aaa(lp2647
g2637
a(lp2648
(F-0.4674811363220215
F-0.7673740386962891
F-3.141592502593994
F-1.5194079875946045
F-0.15684953331947327
F0.4398689270019531
F1.6206507682800293
tp2649
a(F0.023362486877314403
F-0.931726511484844
F-3.062331728423785
F-1.782261057541781
F-0.022452124758298275
F0.6013706684980958
F1.5381667728197588
tp2650
a(F0.7782795233831907
F-1.0114097520941925
F3.141592653589793
F-1.9972287494840864
F0.0023583412126293637
F0.5423547617383612
F1.5501058790399262
tp2651
ag6
(g10
S'\x00\x00\x00\x00\x00\x00\x00\x00'
p2652
tp2653
Rp2654
ag6
(g10
S'\x0fIHb\x13=\xb4?'
p2655
tp2656
Rp2657
aaa(lp2658
g2648
a(lp2659
(F-0.4674811363220215
F-0.7673740386962891
F-3.141592502593994
F-1.5194079875946045
F-0.15684953331947327
F0.4398689270019531
F1.6206507682800293
tp2660
a(F0.026590247243763483
F-1.114588829433288
F-3.06886088667161
F-1.7055605409960997
F-0.03485319396717188
F0.3427291135562444
F1.5684371302000766
tp2661
a(F0.5568725489938281
F-0.953414438518474
F3.141592653589793
F-0.8183658073708441
F0.347817654424896
F-0.6168883963939663
F1.1683218392302466
tp2662
ag6
(g10
S'\x00\x00\x00\x00\x00\x00\xf0?'
p2663
tp2664
Rp2665
ag6
(g10
S'\xdbQ\x14\xd6\x87\xdc\xd4?'
p2666
tp2667
Rp2668
aaa(lp2669
g2659
a(lp2670
(F-0.4674811363220215
F-0.7673740386962891
F-3.141592502593994
F-1.5194079875946045
F-0.15684953331947327
F0.4398689270019531
F1.6206507682800293
tp2671
a(F0.023362486877314403
F-0.931726511484844
F-3.062331728423785
F-1.782261057541781
F-0.022452124758298275
F0.6013706684980958
F1.5381667728197588
tp2672
a(F0.7782795233831907
F-1.0114097520941925
F3.141592653589793
F-1.9972287494840864
F0.0023583412126293637
F0.5423547617383612
F1.5501058790399262
tp2673
ag6
(g10
S'\x00\x00\x00\x00\x00\x00\x00\x00'
p2674
tp2675
Rp2676
ag6
(g10
S'\x0fIHb\x13=\xb4?'
p2677
tp2678
Rp2679
aaa(lp2680
g2670
a(lp2681
(F-0.4674811363220215
F-0.7673740386962891
F-3.141592502593994
F-1.5194079875946045
F-0.15684953331947327
F0.4398689270019531
F1.6206507682800293
tp2682
a(F-0.24292151546154234
F-1.2217304763960306
F-2.565675269461092
F-1.2407701064103562
F-0.7652422751963112
F-0.3356357969178787
F2.1695612429983147
tp2683
a(F0.7782795233831907
F-1.0114097520941925
F3.141592653589793
F-1.9972287494840864
F0.0023583412126293637
F0.5423547617383612
F1.5501058790399262
tp2684
ag6
(g10
S'\x00\x00\x00\x00\x00\x00\x00\x00'
p2685
tp2686
Rp2687
ag6
(g10
S'\x0fIHb\x13=\xb4?'
p2688
tp2689
Rp2690
aaa(lp2691
g2681
a(lp2692
(F-0.4674811363220215
F-0.7673740386962891
F-3.141592502593994
F-1.5194079875946045
F-0.15684953331947327
F0.4398689270019531
F1.6206507682800293
tp2693
a(F0.023362486877314403
F-0.931726511484844
F-3.062331728423785
F-1.782261057541781
F-0.022452124758298275
F0.6013706684980958
F1.5381667728197588
tp2694
a(F-0.7386256683728062
F-1.041782752697809
F3.141592653589793
F-2.059556726582685
F-1.7709982247280232
F1.1687549027288204
F2.158002940952318
tp2695
ag6
(g10
S'\x00\x00\x00\x00\x00\x00\x00\x00'
p2696
tp2697
Rp2698
ag6
(g10
S'\x96ml\x13\x9d[\xee?'
p2699
tp2700
Rp2701
aaa(lp2702
g2692
a(lp2703
(F-0.4674811363220215
F-0.7673740386962891
F-3.141592502593994
F-1.5194079875946045
F-0.15684953331947327
F0.4398689270019531
F1.6206507682800293
tp2704
a(F0.023362486877314403
F-0.931726511484844
F-3.062331728423785
F-1.782261057541781
F-0.022452124758298275
F0.6013706684980958
F1.5381667728197588
tp2705
a(F-0.2800483054437683
F-1.0169386746043436
F3.141592653589793
F-2.0085751230423665
F-1.3987834323978536
F0.9246792570542421
F2.191350204669031
tp2706
ag6
(g10
S'\x00\x00\x00\x00\x00\x00\x00\x00'
p2707
tp2708
Rp2709
ag6
(g10
S'\xf5;,t7\x0f\xe6?'
p2710
tp2711
Rp2712
aaa(lp2713
g2703
a(lp2714
(F-0.4674811363220215
F-0.7673740386962891
F-3.141592502593994
F-1.5194079875946045
F-0.15684953331947327
F0.4398689270019531
F1.6206507682800293
tp2715
a(F0.023362486877314403
F-0.931726511484844
F-3.062331728423785
F-1.782261057541781
F-0.022452124758298275
F0.6013706684980958
F1.5381667728197588
tp2716
a(F-0.7386256683728062
F-1.041782752697809
F3.141592653589793
F-2.059556726582685
F-1.7709982247280232
F1.1687549027288204
F2.158002940952318
tp2717
ag6
(g10
S'\x00\x00\x00\x00\x00\x00\x00\x00'
p2718
tp2719
Rp2720
ag6
(g10
S'\x96ml\x13\x9d[\xee?'
p2721
tp2722
Rp2723
aaa(lp2724
g2714
a(lp2725
(F-0.4674811363220215
F-0.7673740386962891
F-3.141592502593994
F-1.5194079875946045
F-0.15684953331947327
F0.4398689270019531
F1.6206507682800293
tp2726
a(F0.023362486877314403
F-0.931726511484844
F-3.062331728423785
F-1.782261057541781
F-0.022452124758298275
F0.6013706684980958
F1.5381667728197588
tp2727
a(F-0.7386223875817494
F-1.1353381769628252
F3.141592653589793
F-2.04250763494039
F-1.8153648434083884
F1.193184825694193
F2.2746392467563648
tp2728
ag6
(g10
S' ]\x92z6\\\xbe?'
p2729
tp2730
Rp2731
ag6
(g10
S'\x96ml\x13\x9d[\xee?'
p2732
tp2733
Rp2734
aaa(lp2735
g2725
a(lp2736
(F-0.4674811363220215
F-0.7673740386962891
F-3.141592502593994
F-1.5194079875946045
F-0.15684953331947327
F0.4398689270019531
F1.6206507682800293
tp2737
a(F0.026461288958896895
F-1.1120776225245663
F-3.068623249529288
F-1.7074568935103958
F-0.03422477871661483
F0.3471179297143321
F1.5675346104533383
tp2738
a(F-0.19566307985542472
F-0.953115019741
F2.2673560012807634
F-0.9920816639546566
F1.6054529130173525
F-1.7248146565360178
F0.0581978628972551
tp2739
ag6
(g10
S'\x00\x00\x00\x00\x00\x00\xf0?'
p2740
tp2741
Rp2742
ag6
(g10
S'b\xbd!\xbc\x01\x8d\xef?'
p2743
tp2744
Rp2745
aaa(lp2746
g2736
a(lp2747
(F-0.4674811363220215
F-0.7673740386962891
F-3.141592502593994
F-1.5194079875946045
F-0.15684953331947327
F0.4398689270019531
F1.6206507682800293
tp2748
a(F0.023362486877314403
F-0.931726511484844
F-3.062331728423785
F-1.782261057541781
F-0.022452124758298275
F0.6013706684980958
F1.5381667728197588
tp2749
a(F-0.5274779879124983
F-0.7463177095503608
F3.141592653589793
F-1.452698803706363
F-1.7658288714449588
F1.09350718666791
F2.5239893300534373
tp2750
ag6
(g10
S'\x00\x00\x00\x00\x00\x00\x00\x00'
p2751
tp2752
Rp2753
ag6
(g10
S'F\x9c\x9b\xe9\xd3\xe3\xef?'
p2754
tp2755
Rp2756
aaa(lp2757
g2747
a(lp2758
(F-0.4674811363220215
F-0.7673740386962891
F-3.141592502593994
F-1.5194079875946045
F-0.15684953331947327
F0.4398689270019531
F1.6206507682800293
tp2759
a(F0.026014771105986385
F-1.1031612341499224
F-3.067798676540656
F-1.7139226587998193
F-0.03217699069962865
F0.36243504645687097
F1.5645135222718396
tp2760
a(F0.7782795233831907
F-1.0114097520941925
F3.141592653589793
F-1.9972287494840864
F0.0023583412126293637
F0.5423547617383612
F1.5501058790399262
tp2761
ag6
(g10
S'\x00\x00\x00\x00\x00\x00\x00\x00'
p2762
tp2763
Rp2764
ag6
(g10
S'\x0fIHb\x13=\xb4?'
p2765
tp2766
Rp2767
aaa.